 CoreClient

 Timestamp is 44703fa1 (Sun May 21 18:23:29 2006)

 Preferred load address is 10000000

 Start         Length     Name                   Class
 0001:00000000 00081276H .text                   CODE
 0001:00081280 00001491H .text$x                 CODE
 0002:00000000 00000304H .idata$5                DATA
 0002:00000308 0000468dH .rdata                  DATA
 0002:00004998 00001748H .xdata$x                DATA
 0002:000060e0 00000078H .idata$2                DATA
 0002:00006158 00000014H .idata$3                DATA
 0002:0000616c 00000304H .idata$4                DATA
 0002:00006470 00001474H .idata$6                DATA
 0002:000078f0 000014c6H .edata                  DATA
 0003:00000000 00000004H .CRT$XCA                DATA
 0003:00000004 000000a8H .CRT$XCU                DATA
 0003:000000ac 00000004H .CRT$XCZ                DATA
 0003:000000b0 00000004H .CRT$XIA                DATA
 0003:000000b4 00000004H .CRT$XIZ                DATA
 0003:000000c0 00009660H .data                   DATA
 0003:00009720 00b94b34H .bss                    DATA

  Address         Publics by Value              Rva+Base     Lib:Object

 0001:00000000       ?GetMoney@KInventory@@QAEHXZ 10001000 f i KThiefSkill.obj
 0001:00000020       ?SetMoney@KInventory@@QAEHH@Z 10001020 f i KThiefSkill.obj
 0001:00000050       ??4KInventory@@QAEAAV0@ABV0@@Z 10001050 f i KThiefSkill.obj
 0001:00000090       ?GetEquipment@KItemList@@QAEHH@Z 10001090 f i KThiefSkill.obj
 0001:000000b0       ?GetMoney@KItemList@@QAEHH@Z 100010b0 f i KThiefSkill.obj
 0001:000000f0       ?Hand@KItemList@@QAEHXZ    100010f0 f i KThiefSkill.obj
 0001:00000110       ?IsLockOperation@KItemList@@QAEHXZ 10001110 f i KThiefSkill.obj
 0001:00000130       ??4KItemList@@QAEAAV0@ABV0@@Z 10001130 f i KThiefSkill.obj
 0001:00000160       ??0KThiefSkill@@QAE@XZ     10001160 f   KThiefSkill.obj
 0001:000001d8       ??1KThiefSkill@@UAE@XZ     100011d8 f   KThiefSkill.obj
 0001:00000205       ?GetSkillId@KThiefSkill@@UAEHXZ 10001205 f   KThiefSkill.obj
 0001:0000021c       ?GetSkillName@KThiefSkill@@UAEPBDXZ 1000121c f   KThiefSkill.obj
 0001:00000234       ?GetSkillStyle@KThiefSkill@@UAEHXZ 10001234 f   KThiefSkill.obj
 0001:0000024b       ?LoadSkillLevelData@KThiefSkill@@UAEXKH@Z 1000124b f   KThiefSkill.obj
 0001:0000025f       ?DoSkill@KThiefSkill@@QAEHPAVKNpc@@HH@Z 1000125f f   KThiefSkill.obj
 0001:00000381       ?Cast@KThiefSkill@@QAEHPAVKPlayer@@0@Z 10001381 f   KThiefSkill.obj
 0001:0000039a       ?OnSkill@KThiefSkill@@QAEHPAVKNpc@@@Z 1000139a f   KThiefSkill.obj
 0001:0000053b       ?CanCastSkill@KThiefSkill@@UBEHHAAH0@Z 1000153b f   KThiefSkill.obj
 0001:0000062b       ?GetDesc@KThiefSkill@@QAEXKKPADH_N@Z 1000162b f   KThiefSkill.obj
 0001:0000065e       ?LoadSetting@KThiefSkill@@QAEHPAD@Z 1000165e f   KThiefSkill.obj
 0001:00000b1a       ?GetSkillCost@KThiefSkill@@UBEHPAX@Z 10001b1a f   KThiefSkill.obj
 0001:00000c47       ?DrawSkillIcon@KThiefSkill@@UAEXHHHH@Z 10001c47 f   KThiefSkill.obj
 0001:00000d30       ?GetSkillCostType@KThiefSkill@@UBE?AW4NPCATTRIB@@XZ 10001d30 f i KThiefSkill.obj
 0001:00000d50       ?GetAttackRadius@KThiefSkill@@UBEHXZ 10001d50 f i KThiefSkill.obj
 0001:00000d70       ?IsTargetOnly@KThiefSkill@@UBEHXZ 10001d70 f i KThiefSkill.obj
 0001:00000d90       ?IsTargetEnemy@KThiefSkill@@UBEHXZ 10001d90 f i KThiefSkill.obj
 0001:00000db0       ?IsTargetAlly@KThiefSkill@@UBEHXZ 10001db0 f i KThiefSkill.obj
 0001:00000dd0       ?IsTargetObj@KThiefSkill@@UBEHXZ 10001dd0 f i KThiefSkill.obj
 0001:00000df0       ??_EKThiefSkill@@UAEPAXI@Z 10001df0 f i KThiefSkill.obj
 0001:00000df0       ??_GKThiefSkill@@UAEPAXI@Z 10001df0 f i KThiefSkill.obj
 0001:00000e30       ??0ISkill@@QAE@XZ          10001e30 f i KThiefSkill.obj
 0001:00000e50       ?GetDelayPerCast@KThiefSkill@@QAEKXZ 10001e50 f i KThiefSkill.obj
 0001:00000e70       ??1ISkill@@UAE@XZ          10001e70 f i KThiefSkill.obj
 0001:00000e90       ?IsAura@ISkill@@UBEHXZ     10001e90 f i KThiefSkill.obj
 0001:00000eb0       ?IsPhysical@ISkill@@UBEHXZ 10001eb0 f i KThiefSkill.obj
 0001:00000ed0       ?GetSkillLevelUpScriptId@ISkill@@UBEKXZ 10001ed0 f i KThiefSkill.obj
 0001:00000ef0       ??_GISkill@@UAEPAXI@Z      10001ef0 f i KThiefSkill.obj
 0001:00000ef0       ??_EISkill@@UAEPAXI@Z      10001ef0 f i KThiefSkill.obj
 0001:00000f30       ??4KMapMusic@@QAEAAV0@ABV0@@Z 10001f30 f i KMissle.obj
 0001:00000f60       ?GetGameTime@KSubWorldSet@@QAEHXZ 10001f60 f i KMissle.obj
 0001:00000f80       ?GetGameVersion@KSubWorldSet@@QAEHXZ 10001f80 f i KMissle.obj
 0001:00000fa0       ?SetPing@KSubWorldSet@@QAEXK@Z 10001fa0 f i KMissle.obj
 0001:00000fc0       ?GetPing@KSubWorldSet@@QAEKXZ 10001fc0 f i KMissle.obj
 0001:00000fe0       ??4KSubWorldSet@@QAEAAV0@ABV0@@Z 10001fe0 f i KMissle.obj
 0001:00001010       ??1KSubWorldSet@@QAE@XZ    10002010 f i KMissle.obj
 0001:00001040       ??0KMissleSet@@QAE@XZ      10002040 f i KMissle.obj
 0001:000010c0       ??4KMissleSet@@QAEAAV0@ABV0@@Z 100020c0 f i KMissle.obj
 0001:00001100       ??1KMissleSet@@QAE@XZ      10002100 f i KMissle.obj
 0001:0000127c       ??0KMissle@@QAE@XZ         1000227c f   KMissle.obj
 0001:0000138f       ?Release@KMissle@@AAEXXZ   1000238f f   KMissle.obj
 0001:000013f2       ??1KMissle@@UAE@XZ         100023f2 f   KMissle.obj
 0001:0000145d       ?GetInfoFromTabFile@KMissle@@QAEHH@Z 1000245d f   KMissle.obj
 0001:000014a5       ?GetInfoFromTabFile@KMissle@@QAEHPAVKITabFile@@H@Z 100024a5 f   KMissle.obj
 0001:00001e95       ?Init@KMissle@@AAEHHHHHH@Z 10002e95 f   KMissle.obj
 0001:00001ec6       ?Activate@KMissle@@QAEHXZ  10002ec6 f   KMissle.obj
 0001:00002347       ?OnWait@KMissle@@AAEXXZ    10003347 f   KMissle.obj
 0001:00002359       ?OnCollision@KMissle@@AAEXXZ 10003359 f   KMissle.obj
 0001:0000236b       ?CheckCollision@KMissle@@AAEHXZ 1000336b f   KMissle.obj
 0001:0000272c       ?OnFly@KMissle@@AAEXXZ     1000372c f   KMissle.obj
 0001:000032dc       ?OnVanish@KMissle@@AAEXXZ  100042dc f   KMissle.obj
 0001:000032ee       ?Paint@KMissle@@QAEXXZ     100042ee f   KMissle.obj
 0001:000034a6       ?CheckBeyondRegion@KMissle@@AAEHHH@Z 100044a6 f   KMissle.obj
 0001:000039e9       ??4KMissle@@AAEAAV0@AAV0@@Z 100049e9 f   KMissle.obj
 0001:00003e25       ?ProcessDamage@KMissle@@AAEHH@Z 10004e25 f   KMissle.obj
 0001:00003e3b       ?DoVanish@KMissle@@AAEXXZ  10004e3b f   KMissle.obj
 0001:00003f72       ?DoCollision@KMissle@@AAEXXZ 10004f72 f   KMissle.obj
 0001:0000415f       ?DoFly@KMissle@@AAEXXZ     1000515f f   KMissle.obj
 0001:0000418c       ?GetOffsetAxis@KMissle@@SAHHHHHHHAAH00@Z 1000518c f   KMissle.obj
 0001:00004314       ?ProcessCollision@KMissle@@AAEHHHHHHH@Z 10005314 f   KMissle.obj
 0001:000045a8       ?ProcessCollision@KMissle@@AAEHXZ 100055a8 f   KMissle.obj
 0001:00004612       ?CreateSpecialEffect@KMissle@@QAEHW4eMissleStatus@@HHHH@Z 10005612 f   KMissle.obj
 0001:00004867       ?CreateMissleForShow@KMissle@@SAHPAD00PAUTMissleForShow@@@Z 10005867 f   KMissle.obj
 0001:00004b47       ?GetLightInfo@KMissle@@QAEXPAUKLightInfo@@@Z 10005b47 f   KMissle.obj
 0001:00004bf0       ?DoWait@KMissle@@AAEXXZ    10005bf0 f   KMissle.obj
 0001:00004c99       ?PrePareFly@KMissle@@AAEHXZ 10005c99 f   KMissle.obj
 0001:00004fbc       ?CheckNearestCollision@KMissle@@AAEHXZ 10005fbc f   KMissle.obj
 0001:000052e7       ?GetMpsPos@KMissle@@QAEXPAH0@Z 100062e7 f   KMissle.obj
 0001:00005360       ??0KIndexNode@@QAE@XZ      10006360 f i KMissle.obj
 0001:000053b0       ??0KNode@@QAE@XZ           100063b0 f i KMissle.obj
 0001:000053f0       ??_GKNode@@UAEPAXI@Z       100063f0 f i KMissle.obj
 0001:000053f0       ??_EKNode@@UAEPAXI@Z       100063f0 f i KMissle.obj
 0001:00005430       ??1KNode@@UAE@XZ           10006430 f i KMissle.obj
 0001:00005450       ??_GKIndexNode@@UAEPAXI@Z  10006450 f i KMissle.obj
 0001:00005450       ??_EKIndexNode@@UAEPAXI@Z  10006450 f i KMissle.obj
 0001:00005490       ??1KIndexNode@@UAE@XZ      10006490 f i KMissle.obj
 0001:000054c0       ??_GKMissle@@UAEPAXI@Z     100064c0 f i KMissle.obj
 0001:000054c0       ??_EKMissle@@UAEPAXI@Z     100064c0 f i KMissle.obj
 0001:00005500       ?IsMatch@KNpc@@QAEHK@Z     10006500 f i KMissle.obj
 0001:00005530       ?GetSkill@KSkillManager@@QAEPAVISkill@@HH@Z 10006530 f i KMissle.obj
 0001:000055e0       ?FindNpc@KRegion@@QAEHHHHH@Z 100065e0 f i KMissle.obj
 0001:000056b0       ?GetNext@KNode@@QAEPAV1@XZ 100066b0 f i KMissle.obj
 0001:000056e0       ?GetHead@KList@@QAEPAVKNode@@XZ 100066e0 f i KMissle.obj
 0001:00005710       ?g_DirSin@@YAHHH@Z         10006710 f i KMissle.obj
 0001:00005740       ?g_DirCos@@YAHHH@Z         10006740 f i KMissle.obj
 0001:00005770       ?Send@KWorldMsg@@QAEHKHHH@Z 10006770 f i KMissle.obj
 0001:00005850       ?AddTail@KList@@QAEXPAVKNode@@@Z 10006850 f i KMissle.obj
 0001:00005880       ?InsertBefore@KNode@@QAEXPAV1@@Z 10006880 f i KMissle.obj
 0001:00005900       ??0KWorldMsgNode@@QAE@XZ   10006900 f i KMissle.obj
 0001:00005930       ??_GKWorldMsgNode@@UAEPAXI@Z 10006930 f i KMissle.obj
 0001:00005930       ??_EKWorldMsgNode@@UAEPAXI@Z 10006930 f i KMissle.obj
 0001:00005970       ??1KWorldMsgNode@@UAE@XZ   10006970 f i KMissle.obj
 0001:000059a0       ?ZAxisMove@KMissle@@AAEXXZ 100069a0 f i KMissle.obj
 0001:00005a10       ?TestBarrier@KMissle@@AAEHXZ 10006a10 f i KMissle.obj
 0001:00005ab0       ?g_GetDirIndex@@YAHHHHH@Z  10006ab0 f i KMissle.obj
 0001:00005b80       ?g_GetDistance@@YAHHHHH@Z  10006b80 f i KMissle.obj
 0001:00005be0       ?g_DirIndex2Dir@@YAHHH@Z   10006be0 f i KMissle.obj
 0001:00005c20       ?SpecialMovieIsAllEnd@KMissleRes@@QAEHXZ 10006c20 f i KMissle.obj
 0001:00005c60       ??0KSkillSpecialNode@@QAE@XZ 10006c60 f i KMissle.obj
 0001:00005ca0       ??_EKSkillSpecialNode@@UAEPAXI@Z 10006ca0 f i KMissle.obj
 0001:00005ca0       ??_GKSkillSpecialNode@@UAEPAXI@Z 10006ca0 f i KMissle.obj
 0001:00005ce0       ??1KSkillSpecialNode@@UAE@XZ 10006ce0 f i KMissle.obj
 0001:00005d30       ?g_Dir2DirIndex@@YAHHH@Z   10006d30 f i KMissle.obj
 0001:00005d70       ?KSG_StringGetInt@@YAHPAPADH@Z 10006d70 f i KMissle.obj
 0001:00005da0       ?KSG_StringSkipSymbol@@YA_NPAPADH@Z 10006da0 f i KMissle.obj
 0001:00005dd0       ??0KMissleRes@@QAE@XZ      10006dd0 f   KMissleRes.obj
 0001:00005f09       ??1KMissleRes@@QAE@XZ      10006f09 f   KMissleRes.obj
 0001:00005fe3       ?LoadResource@KMissleRes@@QAEXHPAD0@Z 10006fe3 f   KMissleRes.obj
 0001:0000603e       ?Init@KMissleRes@@QAEHXZ   1000703e f   KMissleRes.obj
 0001:00006067       ?Remove@KMissleRes@@QAEXXZ 10007067 f   KMissleRes.obj
 0001:00006079       ?Clear@KMissleRes@@QAEXXZ  10007079 f   KMissleRes.obj
 0001:0000617e       ?Draw@KMissleRes@@QAEHHHHHHHH@Z 1000717e f   KMissleRes.obj
 0001:00006627       ?PlaySoundA@KMissleRes@@QAEXHHHH@Z 10007627 f   KMissleRes.obj
 0001:00006758       ?GetSndVolume@KMissleRes@@QAEHH@Z 10007758 f   KMissleRes.obj
 0001:0000679b       ?StopSound@KMissleRes@@QAEXXZ 1000779b f   KMissleRes.obj
 0001:00006860       ??0KList@@QAE@XZ           10007860 f i KMissleRes.obj
 0001:000068e0       ??1KList@@QAE@XZ           100078e0 f i KMissleRes.obj
 0001:00006940       ?GetTail@KList@@QAEPAVKNode@@XZ 10007940 f i KMissleRes.obj
 0001:00006970       ?GetPrev@KNode@@QAEPAV1@XZ 10007970 f i KMissleRes.obj
 0001:000069a0       ?RemoveTail@KList@@QAEPAVKNode@@XZ 100079a0 f i KMissleRes.obj
 0001:000069f0       ?Remove@KNode@@QAEXXZ      100079f0 f i KMissleRes.obj
 0001:00006aa0       ?RemoveHead@KList@@QAEPAVKNode@@XZ 10007aa0 f i KMissleRes.obj
 0001:00006af0       ?GetSndVolume@KOption@@QAEHXZ 10007af0 f i KMissleRes.obj
 0001:00006b6b       ?Init@KMissleSet@@QAEXXZ   10007b6b f   KMissleSet.obj
 0001:00006c05       ?FindFree@KMissleSet@@QAEHXZ 10007c05 f   KMissleSet.obj
 0001:00006c37       ?Add@KMissleSet@@QAEHHHHHHH@Z 10007c37 f   KMissleSet.obj
 0001:00006d37       ?Add@KMissleSet@@QAEHHHH@Z 10007d37 f   KMissleSet.obj
 0001:00006f40       ?CreateMissile@KMissleSet@@QAEHHHHHHHHH@Z 10007f40 f   KMissleSet.obj
 0001:00006f9a       ?Activate@KMissleSet@@QAEHXZ 10007f9a f   KMissleSet.obj
 0001:00006ff5       ?Remove@KMissleSet@@QAEXH@Z 10007ff5 f   KMissleSet.obj
 0001:000070b2       ?Draw@KMissleSet@@QAEXXZ   100080b2 f   KMissleSet.obj
 0001:00007108       ?GetCount@KMissleSet@@QAEHXZ 10008108 f   KMissleSet.obj
 0001:0000716c       ?ClearMissles@KMissleSet@@QAEXXZ 1000816c f   KMissleSet.obj
 0001:000071e0       ??0KSkillList@@QAE@XZ      100081e0 f   KSkillList.obj
 0001:00007222       ??1KSkillList@@QAE@XZ      10008222 f   KSkillList.obj
 0001:00007234       ?FindSame@KSkillList@@QAEHH@Z 10008234 f   KSkillList.obj
 0001:0000729b       ?FindFree@KSkillList@@QAEHXZ 1000829b f   KSkillList.obj
 0001:000072e7       ?GetCount@KSkillList@@QAEHXZ 100082e7 f   KSkillList.obj
 0001:00007346       ?SetSkillLevel@KSkillList@@QAEXHH@Z 10008346 f   KSkillList.obj
 0001:000073a8       ?SetLevel@KSkillList@@QAEHHH@Z 100083a8 f   KSkillList.obj
 0001:00007417       ?IncreaseLevel@KSkillList@@QAEHHH@Z 10008417 f   KSkillList.obj
 0001:0000750d       ?Add@KSkillList@@QAEHHHHH@Z 1000850d f   KSkillList.obj
 0001:00007702       ?GetLevel@KSkillList@@QAEHH@Z 10008702 f   KSkillList.obj
 0001:0000779d       ?GetCurrentLevel@KSkillList@@QAEHH@Z 1000879d f   KSkillList.obj
 0001:000077f4       ?CanCast@KSkillList@@QAEHHK@Z 100087f4 f   KSkillList.obj
 0001:00007869       ?SetNextCastTime@KSkillList@@QAEXHK@Z 10008869 f   KSkillList.obj
 0001:000078bf       ?GetSkillSortList@KSkillList@@QAEHPAUKUiSkillData@@@Z 100088bf f   KSkillList.obj
 0001:00007acb       ?GetLeftSkillSortList@KSkillList@@QAEHPAUKUiSkillData@@@Z 10008acb f   KSkillList.obj
 0001:00007ced       ?GetRightSkillSortList@KSkillList@@QAEHPAUKUiSkillData@@@Z 10008ced f   KSkillList.obj
 0001:00007f02       ?GetSkillPosition@KSkillList@@QAEHH@Z 10008f02 f   KSkillList.obj
 0001:000080c0       ?GetSkillLRInfo@KSkill@@QBE?AW4eSkillLRInfo@@XZ 100090c0 f i KSkillList.obj
 0001:0000813b       ??0KSkillManager@@QAE@XZ   1000913b f   KSkillManager.obj
 0001:00008150       ??1KSkillManager@@QAE@XZ   10009150 f   KSkillManager.obj
 0001:00008248       ?Init@KSkillManager@@QAEHXZ 10009248 f   KSkillManager.obj
 0001:00008585       ?InstanceSkill@KSkillManager@@AAEPAVISkill@@KK@Z 10009585 f   KSkillManager.obj
 0001:00008880       ??4KSkill@@QAEAAV0@ABV0@@Z 10009880 f i KSkillManager.obj
 0001:00008fb0       ??4ISkill@@QAEAAV0@ABV0@@Z 10009fb0 f i KSkillManager.obj
 0001:00008fd0       ?SetSkillId@KSkill@@QAEXH@Z 10009fd0 f i KSkillManager.obj
 0001:00008ff0       ?SetSkillLevel@KSkill@@QAEXK@Z 10009ff0 f i KSkillManager.obj
 0001:00009010       ?GetSkillStyle@KSkillManager@@AAEHK@Z 1000a010 f i KSkillManager.obj
 0001:00009050       ??0KSkill@@QAE@XZ          1000a050 f   KSkills.obj
 0001:000091b8       ??1KSkill@@UAE@XZ          1000a1b8 f   KSkills.obj
 0001:000091e5       ?CanCastSkill@KSkill@@UBEHHAAH0@Z 1000a1e5 f   KSkills.obj
 0001:0000948e       ?Cast@KSkill@@QBEHHHHHW4eSkillLauncherType@@@Z 1000a48e f   KSkills.obj
 0001:0000971f       ?Vanish@KSkill@@ABEXPAVKMissle@@@Z 1000a71f f   KSkills.obj
 0001:0000974b       ?OnMissleEvent@KSkill@@QBEHGPAVKMissle@@@Z 1000a74b f   KSkills.obj
 0001:00009a8d       ?FlyEvent@KSkill@@ABEXPAVKMissle@@@Z 1000aa8d f   KSkills.obj
 0001:00009ab9       ?Collidsion@KSkill@@ABEXPAVKMissle@@@Z 1000aab9 f   KSkills.obj
 0001:00009ae5       ?CastMissles@KSkill@@ABEHHHHHW4eSkillLauncherType@@@Z 1000aae5 f   KSkills.obj
 0001:0000b121       ?CastZone@KSkill@@ABEHPAUTOrdinSkillParam@@HHH@Z 1000c121 f   KSkills.obj
 0001:0000b6e1       ?CastLine@KSkill@@ABEHPAUTOrdinSkillParam@@HHH@Z 1000c6e1 f   KSkills.obj
 0001:0000bb06       ?CastExtractiveLineMissle@KSkill@@ABEHPAUTOrdinSkillParam@@HHHHHHH@Z 1000cb06 f   KSkills.obj
 0001:0000bf9b       ?CastWall@KSkill@@ABEHPAUTOrdinSkillParam@@HHH@Z 1000cf9b f   KSkills.obj
 0001:0000c466       ?CastCircle@KSkill@@ABEHPAUTOrdinSkillParam@@HHH@Z 1000d466 f   KSkills.obj
 0001:0000c8c4       ?CastSpread@KSkill@@ABEHPAUTOrdinSkillParam@@HHH@Z 1000d8c4 f   KSkills.obj
 0001:0000cef8       ?GetChildSkillNum@KSkill@@QBEHH@Z 1000def8 f   KSkills.obj
 0001:0000cf15       ?CreateMissle@KSkill@@ABEXHHH@Z 1000df15 f   KSkills.obj
 0001:0000d2d3       ?GetInfoFromTabFile@KSkill@@QAEHH@Z 1000e2d3 f   KSkills.obj
 0001:0000d312       ?GetInfoFromTabFile@KSkill@@QAEHPAVKITabFile@@H@Z 1000e312 f   KSkills.obj
 0001:0000dd2a       ?LoadSkillLevelData@KSkill@@UAEXKH@Z 1000ed2a f   KSkills.obj
 0001:0000e23b       ?GetMissleGenerateTime@KSkill@@QBEIH@Z 1000f23b f   KSkills.obj
 0001:0000e3fd       ?GetSkillIdFromName@KSkill@@SAHPAD@Z 1000f3fd f   KSkills.obj
 0001:0000e48c       ?CastInitiativeSkill@KSkill@@ABEHHHHH@Z 1000f48c f   KSkills.obj
 0001:0000e4a5       ?CastPassivitySkill@KSkill@@ABEHHHHH@Z 1000f4a5 f   KSkills.obj
 0001:0000e4be       ?ParseString2MagicAttrib@KSkill@@AAEHKPAD0@Z 1000f4be f   KSkills.obj
 0001:0000eb99       ?DrawSkillIcon@KSkill@@UAEXHHHH@Z 1000fb99 f   KSkills.obj
 0001:0000ec7f       ?GetDesc@KSkill@@SAXKKPADH_N@Z 1000fc7f f   KSkills.obj
 0001:0000ef17       ?GetDescAboutLevel@KSkill@@QAEXPAD@Z 1000ff17 f   KSkills.obj
 0001:0000f219       ?PlayPreCastSound@KSkill@@QBEXHHH@Z 10010219 f   KSkills.obj
 0001:0000f340       ??0KMagicAttrib@@QAE@XZ    10010340 f i KSkills.obj
 0001:0000f380       ?IsTargetOnly@KSkill@@UBEHXZ 10010380 f i KSkills.obj
 0001:0000f3a0       ?IsTargetEnemy@KSkill@@UBEHXZ 100103a0 f i KSkills.obj
 0001:0000f3c0       ?IsTargetAlly@KSkill@@UBEHXZ 100103c0 f i KSkills.obj
 0001:0000f3e0       ?IsTargetObj@KSkill@@UBEHXZ 100103e0 f i KSkills.obj
 0001:0000f400       ?GetSkillName@KSkill@@UAEPBDXZ 10010400 f i KSkills.obj
 0001:0000f420       ?GetSkillStyle@KSkill@@UAEHXZ 10010420 f i KSkills.obj
 0001:0000f440       ?GetAttackRadius@KSkill@@UBEHXZ 10010440 f i KSkills.obj
 0001:0000f460       ?GetSkillCost@KSkill@@UBEHPAX@Z 10010460 f i KSkills.obj
 0001:0000f480       ?GetSkillCostType@KSkill@@UBE?AW4NPCATTRIB@@XZ 10010480 f i KSkills.obj
 0001:0000f4a0       ?GetSkillId@KSkill@@UAEHXZ 100104a0 f i KSkills.obj
 0001:0000f4c0       ?IsAura@KSkill@@UBEHXZ     100104c0 f i KSkills.obj
 0001:0000f4e0       ?IsPhysical@KSkill@@UBEHXZ 100104e0 f i KSkills.obj
 0001:0000f500       ??_EKSkill@@UAEPAXI@Z      10010500 f i KSkills.obj
 0001:0000f500       ??_GKSkill@@UAEPAXI@Z      10010500 f i KSkills.obj
 0001:0000f540       ??_H@YGXPAXIHP6EX0@Z@Z     10010540 f i KSkills.obj
 0001:0000f580       ?Param2PCoordinate@KSkill@@ABEHHHHPAH0W4eSkillLauncherType@@@Z 10010580 f i KSkills.obj
 0001:0000f730       ?MagicAttrib2String@KSkill@@ABEPBDH@Z 10010730 f i KSkills.obj
 0001:0000f7bb       ??0KSkillSpecial@@QAE@XZ   100107bb f   KSkillSpecial.obj
 0001:0000f854       ?Init@KSkillSpecial@@QAEHXZ 10010854 f   KSkillSpecial.obj
 0001:0000f87f       ?Draw@KSkillSpecial@@QAEXH@Z 1001087f f   KSkillSpecial.obj
 0001:0000fad9       ?SetAnimation@KSkillSpecial@@QAEXPADI@Z 10010ad9 f   KSkillSpecial.obj
 0001:0000fb1c       ?Remove@KSkillSpecial@@QAEXXZ 10010b1c f   KSkillSpecial.obj
 0001:0000fb30       ?Init@KFaction@@QAEHXZ     10010b30 f   KFaction.obj
 0001:0001010f       ?GetID@KFaction@@QAEHHH@Z  1001110f f   KFaction.obj
 0001:00010149       ?GetID@KFaction@@QAEHHPAD@Z 10011149 f   KFaction.obj
 0001:000101dd       ?GetCamp@KFaction@@QAEHH@Z 100111dd f   KFaction.obj
 0001:0001028e       ??0KNpc@@QAE@XZ            1001128e f   KNpc.obj
 0001:00010377       ?Init@KNpc@@QAEXXZ         10011377 f   KNpc.obj
 0001:0001094a       ?GetActiveSkill@KNpc@@QAEPAVISkill@@XZ 1001194a f   KNpc.obj
 0001:000109ef       ?SetCurrentCamp@KNpc@@QAEXH@Z 100119ef f   KNpc.obj
 0001:00010a0f       ?SetCamp@KNpc@@QAEXH@Z     10011a0f f   KNpc.obj
 0001:00010a2f       ?RestoreCurrentCamp@KNpc@@QAEXXZ 10011a2f f   KNpc.obj
 0001:00010a53       ?Activate@KNpc@@QAEXXZ     10011a53 f   KNpc.obj
 0001:00010d41       ?ProcStatus@KNpc@@QAEXXZ   10011d41 f   KNpc.obj
 0001:00010eb5       ?ProcCommand@KNpc@@QAEXH@Z 10011eb5 f   KNpc.obj
 0001:00011149       ?ProcessState@KNpc@@QAEHXZ 10012149 f   KNpc.obj
 0001:000114d7       ?DoDeath@KNpc@@AAEXH@Z     100124d7 f   KNpc.obj
 0001:0001163a       ?OnDeath@KNpc@@AAEXXZ      1001263a f   KNpc.obj
 0001:000117c2       ?DoDefense@KNpc@@AAEXXZ    100127c2 f   KNpc.obj
 0001:000117e1       ?OnDefense@KNpc@@AAEXXZ    100127e1 f   KNpc.obj
 0001:000117f3       ?DoIdle@KNpc@@AAEXXZ       100127f3 f   KNpc.obj
 0001:00011820       ?OnIdle@KNpc@@AAEXXZ       10012820 f   KNpc.obj
 0001:00011832       ?DoHurt@KNpc@@AAEXHHH@Z    10012832 f   KNpc.obj
 0001:00011966       ?OnHurt@KNpc@@AAEXXZ       10012966 f   KNpc.obj
 0001:00011c63       ?DoSpecial1@KNpc@@AAEXXZ   10012c63 f   KNpc.obj
 0001:00011c87       ?OnSpecial1@KNpc@@AAEXXZ   10012c87 f   KNpc.obj
 0001:00011d8c       ?DoSpecial2@KNpc@@AAEXXZ   10012d8c f   KNpc.obj
 0001:00011d9e       ?OnSpecial2@KNpc@@AAEXXZ   10012d9e f   KNpc.obj
 0001:00011e6a       ?DoSpecial3@KNpc@@AAEXXZ   10012e6a f   KNpc.obj
 0001:00011e7c       ?OnSpecial3@KNpc@@AAEXXZ   10012e7c f   KNpc.obj
 0001:00011e8e       ?DoSpecial4@KNpc@@AAEXXZ   10012e8e f   KNpc.obj
 0001:00011ea0       ?OnSpecial4@KNpc@@AAEXXZ   10012ea0 f   KNpc.obj
 0001:00011eb2       ?DoStand@KNpc@@AAEXXZ      10012eb2 f   KNpc.obj
 0001:00011f86       ?OnStand@KNpc@@AAEXXZ      10012f86 f   KNpc.obj
 0001:00012000       ?DoRevive@KNpc@@AAEXXZ     10013000 f   KNpc.obj
 0001:00012115       ?OnRevive@KNpc@@AAEXXZ     10013115 f   KNpc.obj
 0001:0001213c       ?DoRun@KNpc@@AAEXXZ        1001313c f   KNpc.obj
 0001:00012236       ?OnRun@KNpc@@AAEXXZ        10013236 f   KNpc.obj
 0001:0001226c       ?DoSit@KNpc@@AAEXXZ        1001326c f   KNpc.obj
 0001:0001230f       ?OnSit@KNpc@@AAEXXZ        1001330f f   KNpc.obj
 0001:0001234c       ?DoSkill@KNpc@@AAEXHH@Z    1001334c f   KNpc.obj
 0001:00012564       ?DoOrdinSkill@KNpc@@AAEHPAVKSkill@@HH@Z 10013564 f   KNpc.obj
 0001:00012913       ?DoAttack@KNpc@@AAEXXZ     10013913 f   KNpc.obj
 0001:000129c2       ?CastMeleeSkill@KNpc@@AAEHPAVKSkill@@@Z 100139c2 f   KNpc.obj
 0001:00012bd6       ?DoBlurAttack@KNpc@@AAEHXZ 10013bd6 f   KNpc.obj
 0001:00012cd7       ?DoMagic@KNpc@@AAEXXZ      10013cd7 f   KNpc.obj
 0001:00012d4f       ?OnSkill@KNpc@@AAEXXZ      10013d4f f   KNpc.obj
 0001:00012e9a       ?JumpTo@KNpc@@AAEXHH@Z     10013e9a f   KNpc.obj
 0001:00012ee6       ?RunTo@KNpc@@AAEXHH@Z      10013ee6 f   KNpc.obj
 0001:00012f20       ?Goto@KNpc@@AAEXHH@Z       10013f20 f   KNpc.obj
 0001:00012f5a       ?DoWalk@KNpc@@AAEXXZ       10013f5a f   KNpc.obj
 0001:0001304f       ?DoPlayerTalk@KNpc@@QAEXPAD@Z 1001404f f   KNpc.obj
 0001:00013063       ?OnPlayerTalk@KNpc@@AAEXXZ 10014063 f   KNpc.obj
 0001:00013075       ?OnWalk@KNpc@@AAEXXZ       10014075 f   KNpc.obj
 0001:000130ab       ?GetSkillLevel@KNpc@@QAEHH@Z 100140ab f   KNpc.obj
 0001:00013101       ?ModifyAttrib@KNpc@@QAEXHPAX@Z 10014101 f   KNpc.obj
 0001:00013137       ?SetImmediatelySkillEffect@KNpc@@QAEXHPAXH@Z 10014137 f   KNpc.obj
 0001:000131e8       ?AppendSkillEffect@KNpc@@QAEXHHPAX0@Z 100141e8 f   KNpc.obj
 0001:0001374c       ?ServeMove@KNpc@@AAEXH@Z   1001474c f   KNpc.obj
 0001:00013f30       ?ServeJump@KNpc@@AAEXH@Z   10014f30 f   KNpc.obj
 0001:000145be       ?SendCommand@KNpc@@QAEXW4NPCCMD@@HHH@Z 100155be f   KNpc.obj
 0001:00014602       ?NewPath@KNpc@@AAEHHH@Z    10015602 f   KNpc.obj
 0001:00014633       ?NewJump@KNpc@@AAEHHH@Z    10015633 f   KNpc.obj
 0001:0001498b       ?SelfDamage@KNpc@@QAEXH@Z  1001598b f   KNpc.obj
 0001:000149cd       ?Cost@KNpc@@QAEHW4NPCATTRIB@@HH@Z 100159cd f   KNpc.obj
 0001:00014b26       ?DoJump@KNpc@@AAEXXZ       10015b26 f   KNpc.obj
 0001:00014c16       ?OnJump@KNpc@@AAEHXZ       10015c16 f   KNpc.obj
 0001:00014c6e       ?WaitForFrame@KNpc@@AAEHXZ 10015c6e f   KNpc.obj
 0001:00014cbf       ?IsReachFrame@KNpc@@AAEHH@Z 10015cbf f   KNpc.obj
 0001:00014cfc       ?Load@KNpc@@QAEXHH@Z       10015cfc f   KNpc.obj
 0001:0001519c       ?GetMpsPos@KNpc@@QAEXPAH0@Z 1001619c f   KNpc.obj
 0001:0001520e       ?SetActiveSkill@KNpc@@QAEHH@Z 1001620e f   KNpc.obj
 0001:0001533a       ?SetAuraSkill@KNpc@@QAEXH@Z 1001633a f   KNpc.obj
 0001:0001547b       ?SetPlayerIdx@KNpc@@QAEHH@Z 1001647b f   KNpc.obj
 0001:000154bd       ?PaintInfo@KNpc@@QAEHH_NHK@Z 100164bd f   KNpc.obj
 0001:00015f10       ?PaintChat@KNpc@@QAEHH@Z   10016f10 f   KNpc.obj
 0001:00016099       ?SetChatInfo@KNpc@@QAEHPBD0G@Z 10017099 f   KNpc.obj
 0001:0001634e       ?PaintLife@KNpc@@QAEHH_N@Z 1001734e f   KNpc.obj
 0001:0001650c       ?PaintMana@KNpc@@QAEHH@Z   1001750c f   KNpc.obj
 0001:00016565       ?Paint@KNpc@@QAEXXZ        10017565 f   KNpc.obj
 0001:00016696       ?AddBaseLifeMax@KNpc@@QAEXH@Z 10017696 f   KNpc.obj
 0001:000166d1       ?AddCurLifeMax@KNpc@@QAEXH@Z 100176d1 f   KNpc.obj
 0001:000166fa       ?AddBaseStaminaMax@KNpc@@QAEXH@Z 100176fa f   KNpc.obj
 0001:00016735       ?AddCurStaminaMax@KNpc@@QAEXH@Z 10017735 f   KNpc.obj
 0001:0001675e       ?AddBaseManaMax@KNpc@@QAEXH@Z 1001775e f   KNpc.obj
 0001:00016799       ?AddCurManaMax@KNpc@@QAEXH@Z 10017799 f   KNpc.obj
 0001:000167c2       ?CalcCurLifeReplenish@KNpc@@QAEXXZ 100177c2 f   KNpc.obj
 0001:000167e6       ?Remove@KNpc@@QAEXXZ       100177e6 f   KNpc.obj
 0001:0001681f       ?RemoveRes@KNpc@@QAEXXZ    1001781f f   KNpc.obj
 0001:00016850       ?SetSeries@KNpc@@QAEXH@Z   10017850 f   KNpc.obj
 0001:00016885       ?SetStateSkillEffect@KNpc@@QAEXHHHPAXHH@Z 10017885 f   KNpc.obj
 0001:00016bff       ?ModifyMissleCollsion@KNpc@@QAEHH@Z 10017bff f   KNpc.obj
 0001:00016c49       ?ModifyMissleLifeTime@KNpc@@QAEHH@Z 10017c49 f   KNpc.obj
 0001:00016c7b       ?ModifyMissleSpeed@KNpc@@QAEHH@Z 10017c7b f   KNpc.obj
 0001:00016ca8       ?DoManyAttack@KNpc@@AAEHXZ 10017ca8 f   KNpc.obj
 0001:00016e44       ?OnManyAttack@KNpc@@AAEXXZ 10017e44 f   KNpc.obj
 0001:00016f14       ?DoRunAttack@KNpc@@AAEHXZ  10017f14 f   KNpc.obj
 0001:0001723e       ?OnRunAttack@KNpc@@AAEXXZ  1001823e f   KNpc.obj
 0001:00017433       ?DoJumpAttack@KNpc@@AAEHXZ 10018433 f   KNpc.obj
 0001:00017650       ?OnJumpAttack@KNpc@@AAEHXZ 10018650 f   KNpc.obj
 0001:000177ff       ?CheckHitTarget@KNpc@@AAEHHHH@Z 100187ff f   KNpc.obj
 0001:000178c3       ?GetNpcCopyFromTemplate@KNpc@@QAEXHH@Z 100188c3 f   KNpc.obj
 0001:00017c4a       ?LoadDataFromTemplate@KNpc@@QAEXHH@Z 10018c4a f   KNpc.obj
 0001:00017e5a       ?SetPhysicsDamage@KNpc@@QAEXHH@Z 10018e5a f   KNpc.obj
 0001:00017e86       ?SetBaseAttackRating@KNpc@@QAEXH@Z 10018e86 f   KNpc.obj
 0001:00017eb8       ?SetBaseDefence@KNpc@@QAEXH@Z 10018eb8 f   KNpc.obj
 0001:00017eea       ?SetMenuState@KNpc@@QAEXHPADH@Z 10018eea f   KNpc.obj
 0001:00017f22       ?GetMenuState@KNpc@@QAEHXZ 10018f22 f   KNpc.obj
 0001:00017f4c       ?SearchAroundID@KNpc@@QAEKK@Z 10018f4c f   KNpc.obj
 0001:00018010       ?SetSpecialSpr@KNpc@@QAEXPAD@Z 10019010 f   KNpc.obj
 0001:00018040       ?SetInstantSpr@KNpc@@QAEXH@Z 10019040 f   KNpc.obj
 0001:00018098       ?GetNormalNpcStandDir@KNpc@@QAEHH@Z 10019098 f   KNpc.obj
 0001:000180c8       ?SetNpcState@KNpc@@QAEXPAE@Z 100190c8 f   KNpc.obj
 0001:000181be       ?ClearNpcState@KNpc@@QAEXXZ 100191be f   KNpc.obj
 0001:0001825a       ?RestoreNpcBaseInfo@KNpc@@QAEXXZ 1001925a f   KNpc.obj
 0001:00018658       ?DrawBorder@KNpc@@QAEXXZ   10019658 f   KNpc.obj
 0001:0001868d       ?DrawMenuState@KNpc@@QAEHH@Z 1001968d f   KNpc.obj
 0001:000186cb       ?DrawBlood@KNpc@@QAEXXZ    100196cb f   KNpc.obj
 0001:00018743       ?IsPlayer@KNpc@@QAEHXZ     10019743 f   KNpc.obj
 0001:00018766       ?ClearStateSkillEffect@KNpc@@QAEXXZ 10019766 f   KNpc.obj
 0001:000188a8       ?ClearNormalState@KNpc@@QAEXXZ 100198a8 f   KNpc.obj
 0001:000189f3       ?CheckTrap@KNpc@@QAEXXZ    100199f3 f   KNpc.obj
 0001:00018ae8       ?SetFightMode@KNpc@@QAEXH@Z 10019ae8 f   KNpc.obj
 0001:00018b08       ?TurnTo@KNpc@@QAEXH@Z      10019b08 f   KNpc.obj
 0001:00018b9f       ?ReCalcStateEffect@KNpc@@QAEXXZ 10019b9f f   KNpc.obj
 0001:00018c96       ?GetCurActiveWeaponSkill@KNpc@@QAEHXZ 10019c96 f   KNpc.obj
 0001:00018d87       ?HurtAutoMove@KNpc@@AAEXXZ 10019d87 f   KNpc.obj
 0001:000192ae       ?ProcNetCommand@KNpc@@QAEXW4NPCCMD@@HHH@Z 1001a2ae f   KNpc.obj
 0001:0001939b       ?ClearBlood@KNpc@@QAEXXZ   1001a39b f   KNpc.obj
 0001:000193de       ?SetBlood@KNpc@@QAEXH@Z    1001a3de f   KNpc.obj
 0001:00019451       ?PaintBlood@KNpc@@QAEHH@Z  1001a451 f   KNpc.obj
 0001:000195a8       ?GetNpcPate@KNpc@@QAEHXZ   1001a5a8 f   KNpc.obj
 0001:00019686       ?GetNpcPatePeopleInfo@KNpc@@QAEHXZ 1001a686 f   KNpc.obj
 0001:00019780       ??1KNpc@@QAE@XZ            1001a780 f i KNpc.obj
 0001:00019810       ?SetAdjustColorId@KNpcRes@@QAEXK@Z 1001a810 f i KNpc.obj
 0001:00019830       ?GetChildSkillId@KSkill@@QBEHXZ 1001a830 f i KNpc.obj
 0001:00019850       ?IsNeedShadow@KSkill@@QBEHXZ 1001a850 f i KNpc.obj
 0001:00019870       ?GetPreCastEffectFile@KSkill@@QBEPBDXZ 1001a870 f i KNpc.obj
 0001:00019890       ?GetActionType@KSkill@@QBE?AW4CLIENTACTION@@XZ 1001a890 f i KNpc.obj
 0001:000198b0       ?GetMeleeType@KSkill@@QBEHXZ 1001a8b0 f i KNpc.obj
 0001:000198d0       ?GetDelayPerCast@KSkill@@QBEHXZ 1001a8d0 f i KNpc.obj
 0001:000198f0       ?GetPlayerWalkSpeed@KNpcSet@@QAEHXZ 1001a8f0 f i KNpc.obj
 0001:00019910       ?GetPlayerRunSpeed@KNpcSet@@QAEHXZ 1001a910 f i KNpc.obj
 0001:00019930       ?GetPlayerAttackFrame@KNpcSet@@QAEHXZ 1001a930 f i KNpc.obj
 0001:00019950       ?GetPlayerHurtFrame@KNpcSet@@QAEHXZ 1001a950 f i KNpc.obj
 0001:00019970       ?GetPlayerStandFrame@KNpcSet@@QAEHH@Z 1001a970 f i KNpc.obj
 0001:000199a0       ?GetPlayerWalkFrame@KNpcSet@@QAEHH@Z 1001a9a0 f i KNpc.obj
 0001:000199d0       ?GetPlayerRunFrame@KNpcSet@@QAEHH@Z 1001a9d0 f i KNpc.obj
 0001:00019a00       ?GetNodeCount@KList@@QAEJXZ 1001aa00 f i KNpc.obj
 0001:00019a60       ??0KOutputTextParam@@QAE@XZ 1001aa60 f i KNpc.obj
 0001:00019ad0       ?GetStateSpecailId@KSkill@@QBEHXZ 1001aad0 f i KNpc.obj
 0001:00019af0       ??0KStateNode@@QAE@XZ      1001aaf0 f i KNpc.obj
 0001:00019b70       ??_GKStateNode@@UAEPAXI@Z  1001ab70 f i KNpc.obj
 0001:00019b70       ??_EKStateNode@@UAEPAXI@Z  1001ab70 f i KNpc.obj
 0001:00019bb0       ??1KStateNode@@UAE@XZ      1001abb0 f i KNpc.obj
 0001:00019be0       ?g_RandPercent@@YAHH@Z     1001abe0 f i KNpc.obj
 0001:00019c10       ?GetChildSkillNum@KSkill@@QBEHXZ 1001ac10 f i KNpc.obj
 0001:00019c30       ?GetSkill@KSkillManager@@QAEPAVISkill@@HHW4eSKillStyle@@@Z 1001ac30 f i KNpc.obj
 0001:00019ca0       ??0KNpcTemplate@@QAE@XZ    1001aca0 f i KNpc.obj
 0001:00019cf7       ??0KNpcAI@@QAE@XZ          1001acf7 f   KNpcAI.obj
 0001:00019d1f       ?Activate@KNpcAI@@QAEXH@Z  1001ad1f f   KNpcAI.obj
 0001:00019df0       ?ProcessShowNpc@KNpcAI@@AAEHXZ 1001adf0 f   KNpcAI.obj
 0001:00019f21       ?ShowNpcType11@KNpcAI@@AAEHXZ 1001af21 f   KNpcAI.obj
 0001:0001a135       ?ShowNpcType12@KNpcAI@@AAEHXZ 1001b135 f   KNpcAI.obj
 0001:0001a366       ?ShowNpcType13@KNpcAI@@AAEHXZ 1001b366 f   KNpcAI.obj
 0001:0001a539       ?ShowNpcType14@KNpcAI@@AAEHXZ 1001b539 f   KNpcAI.obj
 0001:0001a788       ?ShowNpcType15@KNpcAI@@AAEHXZ 1001b788 f   KNpcAI.obj
 0001:0001a95b       ?ShowNpcType16@KNpcAI@@AAEHXZ 1001b95b f   KNpcAI.obj
 0001:0001ab8a       ?ShowNpcType17@KNpcAI@@AAEHXZ 1001bb8a f   KNpcAI.obj
 0001:0001adce       ?ProcessPlayer@KNpcAI@@AAEXXZ 1001bdce f   KNpcAI.obj
 0001:0001ae3f       ?FollowObject@KNpcAI@@AAEXH@Z 1001be3f f   KNpcAI.obj
 0001:0001aedc       ?FollowPeople@KNpcAI@@AAEXH@Z 1001bedc f   KNpcAI.obj
 0001:0001b2b9       ?TriggerMapTrap@KNpcAI@@AAEXXZ 1001c2b9 f   KNpcAI.obj
 0001:0001b2eb       ?TriggerObjectTrap@KNpcAI@@AAEXXZ 1001c2eb f   KNpcAI.obj
 0001:0001b2fd       ?GetNearestNpc@KNpcAI@@AAEHH@Z 1001c2fd f   KNpcAI.obj
 0001:0001ba0d       ?IsPlayerCome@KNpcAI@@AAEHXZ 1001ca0d f   KNpcAI.obj
 0001:0001bad0       ?GetNpcNumber@KNpcAI@@AAEHH@Z 1001cad0 f   KNpcAI.obj
 0001:0001bd7d       ?KeepAttackRange@KNpcAI@@AAEXHH@Z 1001cd7d f   KNpcAI.obj
 0001:0001be68       ?FollowAttack@KNpcAI@@AAEXH@Z 1001ce68 f   KNpcAI.obj
 0001:0001bf6d       ?InEyeshot@KNpcAI@@AAEHH@Z 1001cf6d f   KNpcAI.obj
 0001:0001bfc2       ?CommonAction@KNpcAI@@AAEXXZ 1001cfc2 f   KNpcAI.obj
 0001:0001c105       ?KeepActiveRange@KNpcAI@@AAEHXZ 1001d105 f   KNpcAI.obj
 0001:0001c23e       ?DoShowFlee@KNpcAI@@AAEHH@Z 1001d23e f   KNpcAI.obj
 0001:0001c376       ?Flee@KNpcAI@@AAEXH@Z      1001d376 f   KNpcAI.obj
 0001:0001c415       ?ProcessAIType01@KNpcAI@@AAEXXZ 1001d415 f   KNpcAI.obj
 0001:0001c682       ?ProcessAIType02@KNpcAI@@AAEXXZ 1001d682 f   KNpcAI.obj
 0001:0001c99f       ?ProcessAIType03@KNpcAI@@AAEXXZ 1001d99f f   KNpcAI.obj
 0001:0001cc4c       ?ProcessAIType04@KNpcAI@@AAEXXZ 1001dc4c f   KNpcAI.obj
 0001:0001ce70       ?ProcessAIType05@KNpcAI@@AAEXXZ 1001de70 f   KNpcAI.obj
 0001:0001d144       ?ProcessAIType06@KNpcAI@@AAEXXZ 1001e144 f   KNpcAI.obj
 0001:0001d3b0       ?CanShowNpc@KNpcAI@@AAEHXZ 1001e3b0 f i KNpcAI.obj
 0001:0001d430       ?GetNpcMoveOffset@KNpcAI@@AAEHHHPAH0@Z 1001e430 f i KNpcAI.obj
 0001:0001d500       ?GetRandomNumber@@YAHHH@Z  1001e500 f i KNpcAI.obj
 0001:0001d58b       ??0KNpcAttribModify@@QAE@XZ 1001e58b f   KNpcAttribModify.obj
 0001:0001da25       ??1KNpcAttribModify@@QAE@XZ 1001ea25 f   KNpcAttribModify.obj
 0001:0001da37       ?ModifyAttrib@KNpcAttribModify@@QAEXPAVKNpc@@PAX@Z 1001ea37 f   KNpcAttribModify.obj
 0001:0001dab6       ?AddColdDamageV@KNpcAttribModify@@AAEXPAVKNpc@@PAX@Z 1001eab6 f   KNpcAttribModify.obj
 0001:0001db8b       ?AddFireDamageV@KNpcAttribModify@@AAEXPAVKNpc@@PAX@Z 1001eb8b f   KNpcAttribModify.obj
 0001:0001dc12       ?AddLightingDamageV@KNpcAttribModify@@AAEXPAVKNpc@@PAX@Z 1001ec12 f   KNpcAttribModify.obj
 0001:0001dc99       ?AddPhysicsDamageP@KNpcAttribModify@@AAEXPAVKNpc@@PAX@Z 1001ec99 f   KNpcAttribModify.obj
 0001:0001ded7       ?AddPoisonDamageV@KNpcAttribModify@@AAEXPAVKNpc@@PAX@Z 1001eed7 f   KNpcAttribModify.obj
 0001:0001dfac       ?AddPhysicsDamageV@KNpcAttribModify@@AAEXPAVKNpc@@PAX@Z 1001efac f   KNpcAttribModify.obj
 0001:0001e01b       ?AllresP@KNpcAttribModify@@AAEXPAVKNpc@@PAX@Z 1001f01b f   KNpcAttribModify.obj
 0001:0001e0ea       ?AllSkillV@KNpcAttribModify@@AAEXPAVKNpc@@PAX@Z 1001f0ea f   KNpcAttribModify.obj
 0001:0001e140       ?AttackRatingP@KNpcAttribModify@@AAEXPAVKNpc@@PAX@Z 1001f140 f   KNpcAttribModify.obj
 0001:0001e1dc       ?AttackRatingV@KNpcAttribModify@@AAEXPAVKNpc@@PAX@Z 1001f1dc f   KNpcAttribModify.obj
 0001:0001e24b       ?AttackSpeedV@KNpcAttribModify@@AAEXPAVKNpc@@PAX@Z 1001f24b f   KNpcAttribModify.obj
 0001:0001e2ba       ?BadStatusTimeReduceV@KNpcAttribModify@@AAEXPAVKNpc@@PAX@Z 1001f2ba f   KNpcAttribModify.obj
 0001:0001e2dd       ?BurnTimeReduceP@KNpcAttribModify@@AAEXPAVKNpc@@PAX@Z 1001f2dd f   KNpcAttribModify.obj
 0001:0001e2f1       ?CastSpeedV@KNpcAttribModify@@AAEXPAVKNpc@@PAX@Z 1001f2f1 f   KNpcAttribModify.obj
 0001:0001e360       ?ChangeCampV@KNpcAttribModify@@AAEXPAVKNpc@@PAX@Z 1001f360 f   KNpcAttribModify.obj
 0001:0001e3f4       ?ColdArmorV@KNpcAttribModify@@AAEXPAVKNpc@@PAX@Z 1001f3f4 f   KNpcAttribModify.obj
 0001:0001e4b4       ?ColdresP@KNpcAttribModify@@AAEXPAVKNpc@@PAX@Z 1001f4b4 f   KNpcAttribModify.obj
 0001:0001e523       ?DeadlyStrikeP@KNpcAttribModify@@AAEXPAVKNpc@@PAX@Z 1001f523 f   KNpcAttribModify.obj
 0001:0001e592       ?DexterityV@KNpcAttribModify@@AAEXPAVKNpc@@PAX@Z 1001f592 f   KNpcAttribModify.obj
 0001:0001e623       ?EarthSkillV@KNpcAttribModify@@AAEXPAVKNpc@@PAX@Z 1001f623 f   KNpcAttribModify.obj
 0001:0001e679       ?EnergyV@KNpcAttribModify@@AAEXPAVKNpc@@PAX@Z 1001f679 f   KNpcAttribModify.obj
 0001:0001e70a       ?FastHitRecoverV@KNpcAttribModify@@AAEXPAVKNpc@@PAX@Z 1001f70a f   KNpcAttribModify.obj
 0001:0001e779       ?FastWalkRunP@KNpcAttribModify@@AAEXPAVKNpc@@PAX@Z 1001f779 f   KNpcAttribModify.obj
 0001:0001e828       ?FireArmorV@KNpcAttribModify@@AAEXPAVKNpc@@PAX@Z 1001f828 f   KNpcAttribModify.obj
 0001:0001e8e8       ?FireSkillV@KNpcAttribModify@@AAEXPAVKNpc@@PAX@Z 1001f8e8 f   KNpcAttribModify.obj
 0001:0001e93e       ?FreezeTimeReduceP@KNpcAttribModify@@AAEXPAVKNpc@@PAX@Z 1001f93e f   KNpcAttribModify.obj
 0001:0001e9ad       ?KnockBackP@KNpcAttribModify@@AAEXPAVKNpc@@PAX@Z 1001f9ad f   KNpcAttribModify.obj
 0001:0001ea1c       ?LifeMaxP@KNpcAttribModify@@AAEXPAVKNpc@@PAX@Z 1001fa1c f   KNpcAttribModify.obj
 0001:0001eab8       ?LifeMaxV@KNpcAttribModify@@AAEXPAVKNpc@@PAX@Z 1001fab8 f   KNpcAttribModify.obj
 0001:0001eb27       ?LifeReplenishV@KNpcAttribModify@@AAEXPAVKNpc@@PAX@Z 1001fb27 f   KNpcAttribModify.obj
 0001:0001eb96       ?LifeV@KNpcAttribModify@@AAEXPAVKNpc@@PAX@Z 1001fb96 f   KNpcAttribModify.obj
 0001:0001ec05       ?LightingArmorV@KNpcAttribModify@@AAEXPAVKNpc@@PAX@Z 1001fc05 f   KNpcAttribModify.obj
 0001:0001ecc5       ?LightingresP@KNpcAttribModify@@AAEXPAVKNpc@@PAX@Z 1001fcc5 f   KNpcAttribModify.obj
 0001:0001ed34       ?LuckyV@KNpcAttribModify@@AAEXPAVKNpc@@PAX@Z 1001fd34 f   KNpcAttribModify.obj
 0001:0001ed96       ?ManaMaxP@KNpcAttribModify@@AAEXPAVKNpc@@PAX@Z 1001fd96 f   KNpcAttribModify.obj
 0001:0001ee32       ?ManaMaxV@KNpcAttribModify@@AAEXPAVKNpc@@PAX@Z 1001fe32 f   KNpcAttribModify.obj
 0001:0001eea1       ?ManaReplenishV@KNpcAttribModify@@AAEXPAVKNpc@@PAX@Z 1001fea1 f   KNpcAttribModify.obj
 0001:0001ef10       ?ManaV@KNpcAttribModify@@AAEXPAVKNpc@@PAX@Z 1001ff10 f   KNpcAttribModify.obj
 0001:0001ef7f       ?ManaShieldP@KNpcAttribModify@@AAEXPAVKNpc@@PAX@Z 1001ff7f f   KNpcAttribModify.obj
 0001:0001f036       ?MeleeDamageReturnP@KNpcAttribModify@@AAEXPAVKNpc@@PAX@Z 10020036 f   KNpcAttribModify.obj
 0001:0001f0a5       ?MeleeDamageReturnV@KNpcAttribModify@@AAEXPAVKNpc@@PAX@Z 100200a5 f   KNpcAttribModify.obj
 0001:0001f114       ?MetalSkillV@KNpcAttribModify@@AAEXPAVKNpc@@PAX@Z 10020114 f   KNpcAttribModify.obj
 0001:0001f16a       ?PhysicsArmorV@KNpcAttribModify@@AAEXPAVKNpc@@PAX@Z 1002016a f   KNpcAttribModify.obj
 0001:0001f22a       ?PhysicsresP@KNpcAttribModify@@AAEXPAVKNpc@@PAX@Z 1002022a f   KNpcAttribModify.obj
 0001:0001f299       ?Damage2ManaP@KNpcAttribModify@@AAEXPAVKNpc@@PAX@Z 10020299 f   KNpcAttribModify.obj
 0001:0001f308       ?PoisonArmorV@KNpcAttribModify@@AAEXPAVKNpc@@PAX@Z 10020308 f   KNpcAttribModify.obj
 0001:0001f3c8       ?PoisonDamageReduceV@KNpcAttribModify@@AAEXPAVKNpc@@PAX@Z 100203c8 f   KNpcAttribModify.obj
 0001:0001f44f       ?PoisonresP@KNpcAttribModify@@AAEXPAVKNpc@@PAX@Z 1002044f f   KNpcAttribModify.obj
 0001:0001f4be       ?PoisonTimeReduceP@KNpcAttribModify@@AAEXPAVKNpc@@PAX@Z 100204be f   KNpcAttribModify.obj
 0001:0001f52d       ?RangeDamageReturnV@KNpcAttribModify@@AAEXPAVKNpc@@PAX@Z 1002052d f   KNpcAttribModify.obj
 0001:0001f59c       ?RangeDamageReturnP@KNpcAttribModify@@AAEXPAVKNpc@@PAX@Z 1002059c f   KNpcAttribModify.obj
 0001:0001f60b       ?SlowMissleB@KNpcAttribModify@@AAEXPAVKNpc@@PAX@Z 1002060b f   KNpcAttribModify.obj
 0001:0001f686       ?StaminaMaxP@KNpcAttribModify@@AAEXPAVKNpc@@PAX@Z 10020686 f   KNpcAttribModify.obj
 0001:0001f722       ?StaminaMaxV@KNpcAttribModify@@AAEXPAVKNpc@@PAX@Z 10020722 f   KNpcAttribModify.obj
 0001:0001f791       ?StaminaReplenishV@KNpcAttribModify@@AAEXPAVKNpc@@PAX@Z 10020791 f   KNpcAttribModify.obj
 0001:0001f800       ?StaminaV@KNpcAttribModify@@AAEXPAVKNpc@@PAX@Z 10020800 f   KNpcAttribModify.obj
 0001:0001f86f       ?StealLifeP@KNpcAttribModify@@AAEXPAVKNpc@@PAX@Z 1002086f f   KNpcAttribModify.obj
 0001:0001f8e7       ?StealManaP@KNpcAttribModify@@AAEXPAVKNpc@@PAX@Z 100208e7 f   KNpcAttribModify.obj
 0001:0001f95f       ?StealStaminaP@KNpcAttribModify@@AAEXPAVKNpc@@PAX@Z 1002095f f   KNpcAttribModify.obj
 0001:0001f9d7       ?StrengthV@KNpcAttribModify@@AAEXPAVKNpc@@PAX@Z 100209d7 f   KNpcAttribModify.obj
 0001:0001fa68       ?StunTimeReduceP@KNpcAttribModify@@AAEXPAVKNpc@@PAX@Z 10020a68 f   KNpcAttribModify.obj
 0001:0001fad7       ?VisionRadiusP@KNpcAttribModify@@AAEXPAVKNpc@@PAX@Z 10020ad7 f   KNpcAttribModify.obj
 0001:0001fb46       ?VitalityV@KNpcAttribModify@@AAEXPAVKNpc@@PAX@Z 10020b46 f   KNpcAttribModify.obj
 0001:0001fbd7       ?WaterSkillV@KNpcAttribModify@@AAEXPAVKNpc@@PAX@Z 10020bd7 f   KNpcAttribModify.obj
 0001:0001fc2d       ?WoodSkillV@KNpcAttribModify@@AAEXPAVKNpc@@PAX@Z 10020c2d f   KNpcAttribModify.obj
 0001:0001fc83       ?FireresP@KNpcAttribModify@@AAEXPAVKNpc@@PAX@Z 10020c83 f   KNpcAttribModify.obj
 0001:0001fcf2       ?ArmorDefenseV@KNpcAttribModify@@AAEXPAVKNpc@@PAX@Z 10020cf2 f   KNpcAttribModify.obj
 0001:0001fd61       ?ColdEnhanceP@KNpcAttribModify@@AAEXPAVKNpc@@PAX@Z 10020d61 f   KNpcAttribModify.obj
 0001:0001fdd0       ?FireEnhanceP@KNpcAttribModify@@AAEXPAVKNpc@@PAX@Z 10020dd0 f   KNpcAttribModify.obj
 0001:0001fe3f       ?LightingEnhanceP@KNpcAttribModify@@AAEXPAVKNpc@@PAX@Z 10020e3f f   KNpcAttribModify.obj
 0001:0001feae       ?PoisonEnhanceP@KNpcAttribModify@@AAEXPAVKNpc@@PAX@Z 10020eae f   KNpcAttribModify.obj
 0001:0001ff1d       ?LifePotionV@KNpcAttribModify@@AAEXPAVKNpc@@PAX@Z 10020f1d f   KNpcAttribModify.obj
 0001:0002000a       ?ManaPotionV@KNpcAttribModify@@AAEXPAVKNpc@@PAX@Z 1002100a f   KNpcAttribModify.obj
 0001:000200f7       ?PhysicsResMaxP@KNpcAttribModify@@AAEXPAVKNpc@@PAX@Z 100210f7 f   KNpcAttribModify.obj
 0001:00020166       ?ColdResMaxP@KNpcAttribModify@@AAEXPAVKNpc@@PAX@Z 10021166 f   KNpcAttribModify.obj
 0001:000201d5       ?FireResMaxP@KNpcAttribModify@@AAEXPAVKNpc@@PAX@Z 100211d5 f   KNpcAttribModify.obj
 0001:00020244       ?LightingResMaxP@KNpcAttribModify@@AAEXPAVKNpc@@PAX@Z 10021244 f   KNpcAttribModify.obj
 0001:000202b3       ?PoisonResMaxP@KNpcAttribModify@@AAEXPAVKNpc@@PAX@Z 100212b3 f   KNpcAttribModify.obj
 0001:00020322       ?AllResMaxP@KNpcAttribModify@@AAEXPAVKNpc@@PAX@Z 10021322 f   KNpcAttribModify.obj
 0001:000203f1       ?FatallyStrikeP@KNpcAttribModify@@AAEXPAVKNpc@@PAX@Z 100213f1 f   KNpcAttribModify.obj
 0001:00020405       ?MixPoisonDamage@KNpcAttribModify@@QAEXPAUKMagicAttrib@@0@Z 10021405 f   KNpcAttribModify.obj
 0001:00020510       ?Init@KNpcDeathCalcExp@@QAEXH@Z 10021510 f   KNpcDeathCalcExp.obj
 0001:00020553       ?Active@KNpcDeathCalcExp@@QAEXXZ 10021553 f   KNpcDeathCalcExp.obj
 0001:00020616       ?Clear@KNpcDeathCalcExp@@QAEXXZ 10021616 f   KNpcDeathCalcExp.obj
 0001:00020650       ??0KNpcFindPath@@QAE@XZ    10021650 f   KNpcFindPath.obj
 0001:000206b4       ?Init@KNpcFindPath@@QAEXH@Z 100216b4 f   KNpcFindPath.obj
 0001:00020716       ?GetDir@KNpcFindPath@@QAEHHHHHHHPAH@Z 10021716 f   KNpcFindPath.obj
 0001:00020cf9       ?Dir64To8@KNpcFindPath@@QAEHH@Z 10021cf9 f   KNpcFindPath.obj
 0001:00020d19       ?Dir8To64@KNpcFindPath@@QAEHH@Z 10021d19 f   KNpcFindPath.obj
 0001:00020d33       ?CheckDistance@KNpcFindPath@@QAEHHHHHH@Z 10021d33 f   KNpcFindPath.obj
 0001:00020d77       ?CheckBarrier@KNpcFindPath@@QAEHHH@Z 10021d77 f   KNpcFindPath.obj
 0001:00020e30       ?Init@KNpcGold@@QAEXH@Z    10021e30 f   KNpcGold.obj
 0001:00020ee2       ?SetGoldType@KNpcGold@@QAEXH@Z 10021ee2 f   KNpcGold.obj
 0001:00020f05       ?SetGoldTypeAndBackData@KNpcGold@@QAEXXZ 10021f05 f   KNpcGold.obj
 0001:0002101b       ?RecoverBackData@KNpcGold@@QAEXXZ 1002201b f   KNpcGold.obj
 0001:00021353       ?RandChangeGold@KNpcGold@@QAEXXZ 10022353 f   KNpcGold.obj
 0001:000216e6       ?GetGoldType@KNpcGold@@QAEHXZ 100226e6 f   KNpcGold.obj
 0001:00021717       ?SetGoldCurrentType@KNpcGold@@QAEXH@Z 10022717 f   KNpcGold.obj
 0001:00021767       ?ClientClearState@KNpcGold@@QAEXXZ 10022767 f   KNpcGold.obj
 0001:0002178d       ??0KNpcGoldTemplate@@QAE@XZ 1002278d f   KNpcGold.obj
 0001:000217cc       ?Init@KNpcGoldTemplate@@QAEHXZ 100227cc f   KNpcGold.obj
 0001:00021d70       ??0KNpcRes@@QAE@XZ         10022d70 f   KNpcRes.obj
 0001:00021eca       ?Init@KNpcRes@@QAEHPADPAVKNpcResList@@@Z 10022eca f   KNpcRes.obj
 0001:00022264       ?Remove@KNpcRes@@QAEXH@Z   10023264 f   KNpcRes.obj
 0001:000222ba       ?Draw@KNpcRes@@QAEXHHHHH@Z 100232ba f   KNpcRes.obj
 0001:0002315d       ?GetShadowName@KNpcRes@@SAXPAD0@Z 1002415d f   KNpcRes.obj
 0001:00023179       ??1KNpcRes@@QAE@XZ         10024179 f   KNpcRes.obj
 0001:000231a3       ?SetHelm@KNpcRes@@QAEHH@Z  100241a3 f   KNpcRes.obj
 0001:00023305       ?SetArmor@KNpcRes@@QAEHH@Z 10024305 f   KNpcRes.obj
 0001:00023467       ?SetWeapon@KNpcRes@@QAEHH@Z 10024467 f   KNpcRes.obj
 0001:00023975       ?SetHorse@KNpcRes@@QAEHH@Z 10024975 f   KNpcRes.obj
 0001:00023ae3       ?SetAction@KNpcRes@@QAEHH@Z 10024ae3 f   KNpcRes.obj
 0001:00023ff9       ?SetRideHorse@KNpcRes@@QAEHH@Z 10024ff9 f   KNpcRes.obj
 0001:00024506       ?SetPos@KNpcRes@@QAEXHHHHHH@Z 10025506 f   KNpcRes.obj
 0001:0002458f       ?SetState@KNpcRes@@QAEXPAVKList@@PAVKNpcResList@@@Z 1002558f f   KNpcRes.obj
 0001:0002491c       ?SetSpecialSpr@KNpcRes@@QAEXPAD@Z 1002591c f   KNpcRes.obj
 0001:000249e8       ?SetMenuStateSpr@KNpcRes@@AAEXH@Z 100259e8 f   KNpcRes.obj
 0001:00024b00       ?SetBlur@KNpcRes@@QAEXH@Z  10025b00 f   KNpcRes.obj
 0001:00024b58       ?GetSoundName@KNpcRes@@AAEXXZ 10025b58 f   KNpcRes.obj
 0001:00024b9c       ?PlaySoundA@KNpcRes@@AAEXHH@Z 10025b9c f   KNpcRes.obj
 0001:00024ccb       ?GetSndVolume@KNpcRes@@QAEHH@Z 10025ccb f   KNpcRes.obj
 0001:00024d0e       ?StopSound@KNpcRes@@QAEXXZ 10025d0e f   KNpcRes.obj
 0001:00024d93       ?SetMenuState@KNpcRes@@QAEXHPADH@Z 10025d93 f   KNpcRes.obj
 0001:00024e25       ?GetMenuState@KNpcRes@@QAEHXZ 10025e25 f   KNpcRes.obj
 0001:00024e57       ?SetSleepState@KNpcRes@@QAEXH@Z 10025e57 f   KNpcRes.obj
 0001:00024ed3       ?GetSleepState@KNpcRes@@QAEHXZ 10025ed3 f   KNpcRes.obj
 0001:00024ef6       ?DrawBorder@KNpcRes@@QAEXXZ 10025ef6 f   KNpcRes.obj
 0001:000250e3       ?DrawMenuState@KNpcRes@@QAEHH@Z 100260e3 f   KNpcRes.obj
 0001:00025288       ?GetNormalNpcStandDir@KNpcRes@@QAEHH@Z 10026288 f   KNpcRes.obj
 0001:000252fb       ??0KStateSpr@@QAE@XZ       100262fb f   KNpcRes.obj
 0001:0002532d       ?Release@KStateSpr@@QAEXXZ 1002632d f   KNpcRes.obj
 0001:00025385       ??0KNpcBlur@@QAE@XZ        10026385 f   KNpcRes.obj
 0001:000253c1       ??1KNpcBlur@@QAE@XZ        100263c1 f   KNpcRes.obj
 0001:000253d3       ?SetNextNo@KNpcBlur@@QAEXXZ 100263d3 f   KNpcRes.obj
 0001:00025407       ?SetMapPos@KNpcBlur@@QAEXHHHH@Z 10026407 f   KNpcRes.obj
 0001:0002549f       ?ChangeAlpha@KNpcBlur@@QAEXXZ 1002649f f   KNpcRes.obj
 0001:00025700       ?ClearCurNo@KNpcBlur@@QAEXXZ 10026700 f   KNpcRes.obj
 0001:00025759       ?SetFile@KNpcBlur@@QAEXHPADHHHHH@Z 10026759 f   KNpcRes.obj
 0001:000258b5       ?Draw@KNpcBlur@@QAEXH@Z    100268b5 f   KNpcRes.obj
 0001:00025913       ?NowGetBlur@KNpcBlur@@QAEHXZ 10026913 f   KNpcRes.obj
 0001:00025937       ?Init@KNpcBlur@@QAEHXZ     10026937 f   KNpcRes.obj
 0001:00025a31       ?Remove@KNpcBlur@@QAEXXZ   10026a31 f   KNpcRes.obj
 0001:00025abe       ?AddObj@KNpcBlur@@QAEXXZ   10026abe f   KNpcRes.obj
 0001:00025ad0       ?RemoveObj@KNpcBlur@@QAEXXZ 10026ad0 f   KNpcRes.obj
 0001:00025af0       ?CheckExist@KSprControl@@QAEHXZ 10026af0 f i KNpcRes.obj
 0001:00025b20       ?GetNpcKind@KNpcResNode@@QAEHXZ 10026b20 f i KNpcRes.obj
 0001:00025b9b       ??0KNpcResList@@QAE@XZ     10026b9b f   KNpcResList.obj
 0001:00025c16       ??1KNpcResList@@QAE@XZ     10026c16 f   KNpcResList.obj
 0001:00025cd2       ?Init@KNpcResList@@QAEHXZ  10026cd2 f   KNpcResList.obj
 0001:00025d52       ?FindNpcRes@KNpcResList@@AAEPAVKNpcResNode@@PAD@Z 10026d52 f   KNpcResList.obj
 0001:00025e00       ?AddNpcRes@KNpcResList@@QAEPAVKNpcResNode@@PAD@Z 10026e00 f   KNpcResList.obj
 0001:00025f40       ??0KNpcResNode@@QAE@XZ     10026f40 f   KNpcResNode.obj
 0001:00026058       ??1KNpcResNode@@UAE@XZ     10027058 f   KNpcResNode.obj
 0001:0002610f       ?Init@KNpcResNode@@QAEHPADPAVCActionName@@1@Z 1002710f f   KNpcResNode.obj
 0001:000279e4       ?ComposePathAndName@KNpcResNode@@QAEXPAD00@Z 100289e4 f   KNpcResNode.obj
 0001:00027aa9       ?CheckPartExist@KNpcResNode@@QAEHH@Z 10028aa9 f   KNpcResNode.obj
 0001:00027aec       ?GetFileName@KNpcResNode@@QAEHHHHPAD0H@Z 10028aec f   KNpcResNode.obj
 0001:00027b4e       ?GetInterval@KNpcResNode@@QAEHHHHH@Z 10028b4e f   KNpcResNode.obj
 0001:00027b9b       ?GetTotalFrames@KNpcResNode@@QAEHHHHH@Z 10028b9b f   KNpcResNode.obj
 0001:00027be8       ?GetTotalDirs@KNpcResNode@@QAEHHHHH@Z 10028be8 f   KNpcResNode.obj
 0001:00027c35       ?GetActNo@KNpcResNode@@QAEHHHH@Z 10028c35 f   KNpcResNode.obj
 0001:00027c95       ?GetSort@KNpcResNode@@QAEHHHHPAHH@Z 10028c95 f   KNpcResNode.obj
 0001:00027d3d       ?GetActionSoundName@KNpcResNode@@QAEXHPAD@Z 10028d3d f   KNpcResNode.obj
 0001:00027d9d       ?GetShadowName@KNpcResNode@@SAXPAD0@Z 10028d9d f   KNpcResNode.obj
 0001:00027e27       ??0CActionName@@QAE@XZ     10028e27 f   KNpcResNode.obj
 0001:00027e89       ?Init@CActionName@@QAEHPAD@Z 10028e89 f   KNpcResNode.obj
 0001:00028082       ?GetActionNo@CActionName@@QAEHPAD@Z 10029082 f   KNpcResNode.obj
 0001:00028104       ?GetActionCount@CActionName@@QAEHXZ 10029104 f   KNpcResNode.obj
 0001:0002811f       ?GetActionName@CActionName@@QAEHHPADH@Z 1002911f f   KNpcResNode.obj
 0001:00028199       ??0CShadowFileName@@QAE@XZ 10029199 f   KNpcResNode.obj
 0001:000281c1       ??1CShadowFileName@@QAE@XZ 100291c1 f   KNpcResNode.obj
 0001:00028215       ?Init@CShadowFileName@@QAEXH@Z 10029215 f   KNpcResNode.obj
 0001:000282b4       ?GetFile@CShadowFileName@@QAEHHPAH0000PAD@Z 100292b4 f   KNpcResNode.obj
 0001:0002837c       ??0CStateMagicTable@@QAE@XZ 1002937c f   KNpcResNode.obj
 0001:00028442       ?Init@CStateMagicTable@@QAEHXZ 10029442 f   KNpcResNode.obj
 0001:000287d6       ?GetInfo@CStateMagicTable@@QAEXHPADPAH111111@Z 100297d6 f   KNpcResNode.obj
 0001:000288f3       ??0CRESINFO@@QAE@XZ        100298f3 f   KNpcResNode.obj
 0001:00028925       ??1CRESINFO@@QAE@XZ        10029925 f   KNpcResNode.obj
 0001:00028949       ?AutoDelete@CRESINFO@@QAEXXZ 10029949 f   KNpcResNode.obj
 0001:000289a9       ?AutoNew@CRESINFO@@QAEHHH@Z 100299a9 f   KNpcResNode.obj
 0001:00028ab9       ?GetName@CRESINFO@@QAEHHHPAD0H@Z 10029ab9 f   KNpcResNode.obj
 0001:00028b67       ?GetInterval@CRESINFO@@QAEHHHH@Z 10029b67 f   KNpcResNode.obj
 0001:00028bba       ?GetTotalFrames@CRESINFO@@QAEHHHH@Z 10029bba f   KNpcResNode.obj
 0001:00028c0c       ?GetTotalDirs@CRESINFO@@QAEHHHH@Z 10029c0c f   KNpcResNode.obj
 0001:00028c5f       ??0CEquipStyleTable@@QAE@XZ 10029c5f f   KNpcResNode.obj
 0001:00028c91       ??1CEquipStyleTable@@QAE@XZ 10029c91 f   KNpcResNode.obj
 0001:00028cb5       ?AutoDelete@CEquipStyleTable@@QAEXXZ 10029cb5 f   KNpcResNode.obj
 0001:00028d15       ?AutoNew@CEquipStyleTable@@QAEHHH@Z 10029d15 f   KNpcResNode.obj
 0001:00028dcd       ?SetValue@CEquipStyleTable@@QAEXHHH@Z 10029dcd f   KNpcResNode.obj
 0001:00028e1c       ?GetValue@CEquipStyleTable@@QAEHHH@Z 10029e1c f   KNpcResNode.obj
 0001:00028e79       ??0CSortTable@@QAE@XZ      10029e79 f   KNpcResNode.obj
 0001:00028eeb       ??1CSortTable@@QAE@XZ      10029eeb f   KNpcResNode.obj
 0001:00028f0f       ?Release@CSortTable@@AAEXXZ 10029f0f f   KNpcResNode.obj
 0001:00028fa6       ?SortStrToNum@CSortTable@@AAEXPADPAHH@Z 10029fa6 f   KNpcResNode.obj
 0001:00029105       ?GetTable@CSortTable@@QAEHPADPAVCActionName@@H@Z 1002a105 f   KNpcResNode.obj
 0001:00029234       ?GetTable@CSortTable@@QAEHPAVKIniFile@@PAVCActionName@@H@Z 1002a234 f   KNpcResNode.obj
 0001:00029ab1       ?GetSort@CSortTable@@QAEHHHHPAHH@Z 1002aab1 f   KNpcResNode.obj
 0001:00029fd0       ??_EKNpcResNode@@UAEPAXI@Z 1002afd0 f i KNpcResNode.obj
 0001:00029fd0       ??_GKNpcResNode@@UAEPAXI@Z 1002afd0 f i KNpcResNode.obj
 0001:0002a010       ??0SECTINFO@KNpcResNode@@QAE@XZ 1002b010 f i KNpcResNode.obj
 0001:0002a040       ?Clear@SECTINFO@KNpcResNode@@QAEXXZ 1002b040 f i KNpcResNode.obj
 0001:0002a070       ??0SACTTABLEOFF@@QAE@XZ    1002b070 f i KNpcResNode.obj
 0001:0002a0a0       ?Clear@SACTTABLEOFF@@QAEXXZ 1002b0a0 f i KNpcResNode.obj
 0001:0002a12b       ??0KNpcSet@@QAE@XZ         1002b12b f   KNpcSet.obj
 0001:0002a204       ?Init@KNpcSet@@QAEXXZ      1002b204 f   KNpcSet.obj
 0001:0002a369       ?LoadPlayerBaseValue@KNpcSet@@QAEXPAD@Z 1002b369 f   KNpcSet.obj
 0001:0002a59d       ?IsNpcExist@KNpcSet@@QAEHHK@Z 1002b59d f   KNpcSet.obj
 0001:0002a5ce       ?GenOneRelation@KNpcSet@@AAE?AW4NPC_RELATION@@W4NPCKIND@@0W4NPCCAMP@@1@Z 1002b5ce f   KNpcSet.obj
 0001:0002a66d       ?GenRelationTable@KNpcSet@@AAEHXZ 1002b66d f   KNpcSet.obj
 0001:0002a76c       ?SearchID@KNpcSet@@QAEHK@Z 1002b76c f   KNpcSet.obj
 0001:0002a7e9       ?SearchClientID@KNpcSet@@QAEHUKClientNpcID@@@Z 1002b7e9 f   KNpcSet.obj
 0001:0002a87a       ?SearchName@KNpcSet@@QAEHPAD@Z 1002b87a f   KNpcSet.obj
 0001:0002a90c       ?SearchNameID@KNpcSet@@QAEHK@Z 1002b90c f   KNpcSet.obj
 0001:0002a9c3       ?FindFree@KNpcSet@@AAEHXZ  1002b9c3 f   KNpcSet.obj
 0001:0002a9fb       ?AddClientNpc@KNpcSet@@QAEHHHHHHH@Z 1002b9fb f   KNpcSet.obj
 0001:0002ab80       ?Add@KNpcSet@@QAEHHPAX@Z   1002bb80 f   KNpcSet.obj
 0001:0002adfd       ?Add@KNpcSet@@QAEHHHHH@Z   1002bdfd f   KNpcSet.obj
 0001:0002ae9b       ?Add@KNpcSet@@QAEHHHHHHHH@Z 1002be9b f   KNpcSet.obj
 0001:0002b128       ?Remove@KNpcSet@@QAEXH@Z   1002c128 f   KNpcSet.obj
 0001:0002b1cd       ?RemoveAll@KNpcSet@@QAEXXZ 1002c1cd f   KNpcSet.obj
 0001:0002b2c7       ?InsertNpcToRegion@KNpcSet@@QAEXH@Z 1002c2c7 f   KNpcSet.obj
 0001:0002b3fd       ?SetID@KNpcSet@@AAEXH@Z    1002c3fd f   KNpcSet.obj
 0001:0002b44f       ?GetDistance@KNpcSet@@SAHHH@Z 1002c44f f   KNpcSet.obj
 0001:0002b702       ?GetDistanceSquare@KNpcSet@@SAHHH@Z 1002c702 f   KNpcSet.obj
 0001:0002b97d       ?GetNextIdx@KNpcSet@@QAEHH@Z 1002c97d f   KNpcSet.obj
 0001:0002b9cc       ?CheckBalance@KNpcSet@@QAEXXZ 1002c9cc f   KNpcSet.obj
 0001:0002bbfe       ?GetAroundPlayerForTeamInvite@KNpcSet@@QAEHPAUKUiPlayerItem@@H@Z 1002cbfe f   KNpcSet.obj
 0001:0002beb5       ?GetAroundPlayer@KNpcSet@@QAEHPAUKUiPlayerItem@@H@Z 1002ceb5 f   KNpcSet.obj
 0001:0002c065       ?SetShowNameFlag@KNpcSet@@QAEXH@Z 1002d065 f   KNpcSet.obj
 0001:0002c0ab       ?CheckShowName@KNpcSet@@QAEHXZ 1002d0ab f   KNpcSet.obj
 0001:0002c0c9       ?SetShowLifeFlag@KNpcSet@@QAEXH@Z 1002d0c9 f   KNpcSet.obj
 0001:0002c10f       ?CheckShowLife@KNpcSet@@QAEHXZ 1002d10f f   KNpcSet.obj
 0001:0002c12d       ?SetShowChatFlag@KNpcSet@@QAEXH@Z 1002d12d f   KNpcSet.obj
 0001:0002c173       ?CheckShowChat@KNpcSet@@QAEHXZ 1002d173 f   KNpcSet.obj
 0001:0002c191       ?SetShowManaFlag@KNpcSet@@QAEXH@Z 1002d191 f   KNpcSet.obj
 0001:0002c1d7       ?CheckShowMana@KNpcSet@@QAEHXZ 1002d1d7 f   KNpcSet.obj
 0001:0002c1f5       ?ClearActivateFlagOfAllNpc@KNpcSet@@QAEXXZ 1002d1f5 f   KNpcSet.obj
 0001:0002c268       ?GetAroundOpenCaptain@KNpcSet@@QAEXH@Z 1002d268 f   KNpcSet.obj
 0001:0002c4b6       ?SearchNpcAt@KNpcSet@@QAEHHHHH@Z 1002d4b6 f   KNpcSet.obj
 0001:0002c699       ?IsNpcRequestExist@KNpcSet@@QAEHK@Z 1002d699 f   KNpcSet.obj
 0001:0002c6cc       ?InsertNpcRequest@KNpcSet@@QAEXK@Z 1002d6cc f   KNpcSet.obj
 0001:0002c7ae       ?RemoveNpcRequest@KNpcSet@@QAEXK@Z 1002d7ae f   KNpcSet.obj
 0001:0002c87b       ?GetRequestIndex@KNpcSet@@QAEHK@Z 1002d87b f   KNpcSet.obj
 0001:0002c901       ?GetRelation@KNpcSet@@QAE?AW4NPC_RELATION@@HH@Z 1002d901 f   KNpcSet.obj
 0001:0002cccb       ??0KInstantSpecial@@QAE@XZ 1002dccb f   KNpcSet.obj
 0001:0002cd5f       ?LoadSprName@KInstantSpecial@@AAEXXZ 1002dd5f f   KNpcSet.obj
 0001:0002ce91       ?LoadSoundName@KInstantSpecial@@AAEXXZ 1002de91 f   KNpcSet.obj
 0001:0002d020       ?GetSprName@KInstantSpecial@@QAEXHPADH@Z 1002e020 f   KNpcSet.obj
 0001:0002d0be       ?PlaySoundA@KInstantSpecial@@QAEXH@Z 1002e0be f   KNpcSet.obj
 0001:0002d1d0       ??1KNpcSet@@QAE@XZ         1002e1d0 f i KNpcSet.obj
 0001:0002d290       ?Clear@KSkillList@@QAEXXZ  1002e290 f i KNpcSet.obj
 0001:0002d2d0       ?GetEnmityPKState@KPlayerPK@@QAEHXZ 1002e2d0 f i KNpcSet.obj
 0001:0002d2f0       ?GetEnmityPKAimNpcID@KPlayerPK@@QAEHXZ 1002e2f0 f i KNpcSet.obj
 0001:0002d310       ?GetExercisePKAim@KPlayerPK@@QAEHXZ 1002e310 f i KNpcSet.obj
 0001:0002d330       ?InitNpcBaseData@KNpcTemplate@@QAEXH@Z 1002e330 f   KNpcTemplate.obj
 0001:0002d767       ?InitNpcLevelData@KNpcTemplate@@QAEXPAVKTabFile@@HPAVKLuaScript@@H@Z 1002e767 f   KNpcTemplate.obj
 0001:0002d90e       ?GetNpcLevelDataFromScript@KNpcTemplate@@SAHPAVKLuaScript@@PADH1@Z 1002e90e f   KNpcTemplate.obj
 0001:0002da08       ?GetNpcLevelDataFromScript@KNpcTemplate@@SAHPAVKLuaScript@@PADHNNN@Z 1002ea08 f   KNpcTemplate.obj
 0001:0002daee       ?SkillString2Id@KNpcTemplate@@SAHPAD@Z 1002eaee f   KNpcTemplate.obj
 0001:0002dc78       ??0KPlayer@@QAE@XZ         1002ec78 f   KPlayer.obj
 0001:0002dd3e       ??1KPlayer@@QAE@XZ         1002ed3e f   KPlayer.obj
 0001:0002ddbb       ?Release@KPlayer@@QAEXXZ   1002edbb f   KPlayer.obj
 0001:0002df76       ?SetPlayerIndex@KPlayer@@QAEXH@Z 1002ef76 f   KPlayer.obj
 0001:0002dfa5       ?GetPlayerIndex@KPlayer@@QAEHXZ 1002efa5 f   KPlayer.obj
 0001:0002dfbd       ?Active@KPlayer@@QAEXXZ    1002efbd f   KPlayer.obj
 0001:0002e185       ?ProcessMsg@KPlayer@@QAEXPAVKWorldMsgNode@@@Z 1002f185 f   KPlayer.obj
 0001:0002e1ab       ?ProcessInputMsg@KPlayer@@QAEXIIJ@Z 1002f1ab f   KPlayer.obj
 0001:0002e406       ?OnButtonDown@KPlayer@@AAEXHHHW4MOUSE_BUTTON@@@Z 1002f406 f   KPlayer.obj
 0001:0002e46c       ?OnButtonMove@KPlayer@@AAEXHHHW4MOUSE_BUTTON@@@Z 1002f46c f   KPlayer.obj
 0001:0002e4af       ?OnButtonUp@KPlayer@@AAEXHHW4MOUSE_BUTTON@@@Z 1002f4af f   KPlayer.obj
 0001:0002e4d1       ?OnMouseMove@KPlayer@@AAEXHH@Z 1002f4d1 f   KPlayer.obj
 0001:0002e632       ?ProcessMouse@KPlayer@@AAEXHHHW4MOUSE_BUTTON@@@Z 1002f632 f   KPlayer.obj
 0001:0002ec75       ?Walk@KPlayer@@QAEXHH@Z    1002fc75 f   KPlayer.obj
 0001:0002ee0d       ?TurnLeft@KPlayer@@QAEXXZ  1002fe0d f   KPlayer.obj
 0001:0002ee9f       ?TurnRight@KPlayer@@QAEXXZ 1002fe9f f   KPlayer.obj
 0001:0002ef31       ?TurnBack@KPlayer@@QAEXXZ  1002ff31 f   KPlayer.obj
 0001:0002efd4       ?FindSelectNpc@KPlayer@@QAEXHHH@Z 1002ffd4 f   KPlayer.obj
 0001:0002f038       ?FindSelectObject@KPlayer@@QAEXHH@Z 10030038 f   KPlayer.obj
 0001:0002f098       ?NetCommandPlayerTalk@KPlayer@@AAEHPAE@Z 10030098 f   KPlayer.obj
 0001:0002f0ae       ?ConformIdx@KPlayer@@QAEHH@Z 100300ae f   KPlayer.obj
 0001:0002f0dc       ?NewPlayerGetBaseAttribute@KPlayer@@QAEHH@Z 100300dc f   KPlayer.obj
 0001:0002f1ee       ?CalcCurLucky@KPlayer@@AAEXXZ 100301ee f   KPlayer.obj
 0001:0002f212       ?ChangeCurStrength@KPlayer@@QAEXH@Z 10030212 f   KPlayer.obj
 0001:0002f24d       ?ChangeCurDexterity@KPlayer@@QAEXH@Z 1003024d f   KPlayer.obj
 0001:0002f2fe       ?ChangeCurVitality@KPlayer@@QAEXH@Z 100302fe f   KPlayer.obj
 0001:0002f3a3       ?ChangeCurEngergy@KPlayer@@QAEXH@Z 100303a3 f   KPlayer.obj
 0001:0002f40f       ?AddBaseLucky@KPlayer@@QAEXH@Z 1003040f f   KPlayer.obj
 0001:0002f44a       ?SetNpcPhysicsDamage@KPlayer@@AAEXXZ 1003044a f   KPlayer.obj
 0001:0002f570       ?SetNpcAttackRating@KPlayer@@AAEXXZ 10030570 f   KPlayer.obj
 0001:0002f5c3       ?SetNpcDefence@KPlayer@@AAEXXZ 100305c3 f   KPlayer.obj
 0001:0002f618       ?AddExp@KPlayer@@QAEXHH@Z  10030618 f   KPlayer.obj
 0001:0002f646       ?AddSelfExp@KPlayer@@QAEXHH@Z 10030646 f   KPlayer.obj
 0001:0002f777       ?DirectAddExp@KPlayer@@QAEXH@Z 10030777 f   KPlayer.obj
 0001:0002f7f6       ?LevelUp@KPlayer@@QAEXXZ   100307f6 f   KPlayer.obj
 0001:0002fc9a       ?UpdataCurData@KPlayer@@QAEXXZ 10030c9a f   KPlayer.obj
 0001:0003035f       ?ReCalcEquip@KPlayer@@QAEXXZ 1003135f f   KPlayer.obj
 0001:0003043f       ?ReCalcState@KPlayer@@QAEXXZ 1003143f f   KPlayer.obj
 0001:000304bb       ?AddLeadExp@KPlayer@@QAEXH@Z 100314bb f   KPlayer.obj
 0001:0003058b       ?LevelAddBaseLifeMax@KPlayer@@AAEXXZ 1003158b f   KPlayer.obj
 0001:00030610       ?LevelAddBaseStaminaMax@KPlayer@@AAEXXZ 10031610 f   KPlayer.obj
 0001:00030695       ?LevelAddBaseManaMax@KPlayer@@AAEXXZ 10031695 f   KPlayer.obj
 0001:0003071a       ?ChangePlayerCamp@KPlayer@@QAEXH@Z 1003171a f   KPlayer.obj
 0001:00030751       ?ApplyTeamInfo@KPlayer@@QAEXK@Z 10031751 f   KPlayer.obj
 0001:000307c1       ?ApplySelfTeamInfo@KPlayer@@QAEXXZ 100317c1 f   KPlayer.obj
 0001:000307f8       ?ApplyCreateTeam@KPlayer@@QAEHXZ 100317f8 f   KPlayer.obj
 0001:00030822       ?ApplyTeamOpenClose@KPlayer@@QAEHH@Z 10031822 f   KPlayer.obj
 0001:000308ec       ?ApplyAddTeam@KPlayer@@QAEXH@Z 100318ec f   KPlayer.obj
 0001:00030a3d       ?AcceptTeamMember@KPlayer@@QAEXK@Z 10031a3d f   KPlayer.obj
 0001:00030b2c       ?TeamDropApplyOne@KPlayer@@QAEXK@Z 10031b2c f   KPlayer.obj
 0001:00030bcf       ?LeaveTeam@KPlayer@@QAEXXZ 10031bcf f   KPlayer.obj
 0001:00030c34       ?TeamKickMember@KPlayer@@QAEXK@Z 10031c34 f   KPlayer.obj
 0001:00030cb7       ?ApplyTeamChangeCaptain@KPlayer@@QAEXK@Z 10031cb7 f   KPlayer.obj
 0001:00030d3a       ?ApplyTeamDismiss@KPlayer@@QAEXXZ 10031d3a f   KPlayer.obj
 0001:00030db8       ?ApplySetPK@KPlayer@@QAEXH@Z 10031db8 f   KPlayer.obj
 0001:00030e24       ?ApplyFactionData@KPlayer@@QAEXXZ 10031e24 f   KPlayer.obj
 0001:00030e89       ?SendChat@KPlayer@@QAEXPAUKUiMsgParam@@PAD@Z 10031e89 f   KPlayer.obj
 0001:00030f3e       ?ApplyAddBaseAttribute@KPlayer@@QAEXHH@Z 10031f3e f   KPlayer.obj
 0001:00030fcb       ?ApplyAddSkillLevel@KPlayer@@QAEHHH@Z 10031fcb f   KPlayer.obj
 0001:0003109b       ?ApplyUseItem@KPlayer@@QAEHHUItemPos@@@Z 1003209b f   KPlayer.obj
 0001:00031157       ?PickUpObj@KPlayer@@QAEXH@Z 10032157 f   KPlayer.obj
 0001:000312c3       ?ObjMouseClick@KPlayer@@QAEXH@Z 100322c3 f   KPlayer.obj
 0001:00031355       ?MoveItem@KPlayer@@QAEXUItemPos@@0@Z 10032355 f   KPlayer.obj
 0001:000314fa       ?ThrowAwayItem@KPlayer@@QAEHXZ 100324fa f   KPlayer.obj
 0001:00031587       ?ChatAddFriend@KPlayer@@QAEXH@Z 10032587 f   KPlayer.obj
 0001:000315ef       ?ChatRefuseFriend@KPlayer@@QAEXH@Z 100325ef f   KPlayer.obj
 0001:00031657       ?TradeApplyOpen@KPlayer@@QAEXPADH@Z 10032657 f   KPlayer.obj
 0001:00031790       ?TradeApplyClose@KPlayer@@QAEXXZ 10032790 f   KPlayer.obj
 0001:000317f5       ?TradeApplyStart@KPlayer@@QAEXH@Z 100327f5 f   KPlayer.obj
 0001:000318ca       ?TradeMoveMoney@KPlayer@@QAEHH@Z 100328ca f   KPlayer.obj
 0001:00031971       ?TradeDecision@KPlayer@@QAEXH@Z 10032971 f   KPlayer.obj
 0001:00031a08       ?TradeApplyLock@KPlayer@@QAEXH@Z 10032a08 f   KPlayer.obj
 0001:00031a8d       ?s2cApplyAddTeam@KPlayer@@QAEXPAE@Z 10032a8d f   KPlayer.obj
 0001:00031d20       ?SetDefaultImmedSkill@KPlayer@@QAEXXZ 10032d20 f   KPlayer.obj
 0001:00031df1       ?SetLeftSkill@KPlayer@@QAEXH@Z 10032df1 f   KPlayer.obj
 0001:00031e67       ?SetRightSkill@KPlayer@@QAEXH@Z 10032e67 f   KPlayer.obj
 0001:00031f49       ?UpdateWeaponSkill@KPlayer@@QAEXXZ 10032f49 f   KPlayer.obj
 0001:00032036       ?SetChatCurChannel@KPlayer@@QAEXH@Z 10033036 f   KPlayer.obj
 0001:0003206a       ?TeamInviteAdd@KPlayer@@QAEXK@Z 1003306a f   KPlayer.obj
 0001:0003209a       ?ExecuteScript@KPlayer@@QAEHPAD0H@Z 1003309a f   KPlayer.obj
 0001:00032105       ?ExecuteScript@KPlayer@@QAEHKPADH@Z 10033105 f   KPlayer.obj
 0001:0003237a       ?ExecuteScript@KPlayer@@QAEHKPAD0@Z 1003337a f   KPlayer.obj
 0001:00032624       ?ExecuteScript@KPlayer@@QAEHPAD00@Z 10033624 f   KPlayer.obj
 0001:0003269e       ?DoScript@KPlayer@@QAEHPAD@Z 1003369e f   KPlayer.obj
 0001:0003290f       ?DoScriptAction@KPlayer@@QAEXPAUPLAYER_SCRIPTACTION_SYNC@@@Z 1003390f f   KPlayer.obj
 0001:00032950       ?ProcessPlayerSelectFromUI@KPlayer@@QAEXPAE@Z 10033950 f   KPlayer.obj
 0001:00032a05       ?OnSelectFromUI@KPlayer@@QAEXPAUPLAYER_SELECTUI_COMMAND@@W4UIInfo@@@Z 10033a05 f   KPlayer.obj
 0001:00032af4       ?ChatFriendOnLine@KPlayer@@QAEXKH@Z 10033af4 f   KPlayer.obj
 0001:00032c2f       ?GetFactionName@KPlayer@@QAEXPADH@Z 10033c2f f   KPlayer.obj
 0001:00032c5f       ?OnScriptAction@KPlayer@@QAEXPAUPLAYER_SCRIPTACTION_SYNC@@@Z 10033c5f f   KPlayer.obj
 0001:00033a85       ?s2cTradeChangeState@KPlayer@@QAEXPAE@Z 10034a85 f   KPlayer.obj
 0001:00033f51       ?s2cLevelUp@KPlayer@@QAEXPAE@Z 10034f51 f   KPlayer.obj
 0001:000347fa       ?s2cGetCurAttribute@KPlayer@@QAEXPAE@Z 100357fa f   KPlayer.obj
 0001:00034a00       ?s2cSetExp@KPlayer@@QAEXH@Z 10035a00 f   KPlayer.obj
 0001:00034b09       ?s2cSyncMoney@KPlayer@@QAEXPAE@Z 10035b09 f   KPlayer.obj
 0001:00034c69       ?s2cTradeApplyStart@KPlayer@@QAEXPAE@Z 10035c69 f   KPlayer.obj
 0001:00034d4d       ?s2cTradeMoneySync@KPlayer@@QAEXPAE@Z 10035d4d f   KPlayer.obj
 0001:00034dbd       ?s2cTradeDecision@KPlayer@@QAEXPAE@Z 10035dbd f   KPlayer.obj
 0001:00034fe2       ?SyncCurPlayer@KPlayer@@QAEXPAE@Z 10035fe2 f   KPlayer.obj
 0001:000354c0       ?CheckTrading@KPlayer@@QAEHXZ 100364c0 f   KPlayer.obj
 0001:000354e3       ?SetFirstDamage@KPlayer@@QAEXXZ 100364e3 f   KPlayer.obj
 0001:0003565d       ?SetBaseAttackRating@KPlayer@@QAEXXZ 1003665d f   KPlayer.obj
 0001:00035691       ?SetBaseDefence@KPlayer@@QAEXXZ 10036691 f   KPlayer.obj
 0001:000356c1       ?SetBaseResistData@KPlayer@@QAEXXZ 100366c1 f   KPlayer.obj
 0001:00035895       ?SetBaseSpeedAndRadius@KPlayer@@QAEXXZ 10036895 f   KPlayer.obj
 0001:0003592b       ?DialogNpc@KPlayer@@QAEXH@Z 1003692b f   KPlayer.obj
 0001:000359f7       ?CheckObject@KPlayer@@QAEXH@Z 100369f7 f   KPlayer.obj
 0001:00035ac0       ?DrawSelectInfo@KPlayer@@QAEXXZ 10036ac0 f   KPlayer.obj
 0001:00035bf2       ?GetEchoDamage@KPlayer@@QAEXPAH0H@Z 10036bf2 f   KPlayer.obj
 0001:000360f1       ?SetNpcDamageAttrib@KPlayer@@QAEXXZ 100370f1 f   KPlayer.obj
 0001:00036120       ??0KPlayerChat@@QAE@XZ     10037120 f i KPlayer.obj
 0001:000361b0       ??1KPlayerChat@@QAE@XZ     100371b0 f i KPlayer.obj
 0001:00036240       ??1CChatFriendTeam@@QAE@XZ 10037240 f i KPlayer.obj
 0001:00036270       ?IsCanInput@KNpc@@QAEHXZ   10037270 f i KPlayer.obj
 0001:00036290       ?GetDetailType@KItem@@QBEHXZ 10037290 f i KPlayer.obj
 0001:000362b0       ?GetGenre@KItem@@QBEHXZ    100372b0 f i KPlayer.obj
 0001:000362d0       ??_GKLuaScript@@UAEPAXI@Z  100372d0 f i KPlayer.obj
 0001:000362d0       ??_EKLuaScript@@UAEPAXI@Z  100372d0 f i KPlayer.obj
 0001:00036320       ?Clear@BuySellInfo@@QAEXXZ 10037320 f i KPlayer.obj
 0001:00036360       ?GetDamageAttribs@KSkill@@QAEPAUKMagicAttrib@@XZ 10037360 f i KPlayer.obj
 0001:00036380       ?Release@KPlayerChat@@QAEXXZ 10037380 f   KPlayerChat.obj
 0001:000364a3       ?CheckExist@KPlayerChat@@QAEHK@Z 100374a3 f   KPlayerChat.obj
 0001:0003653f       ?CheckExist@KPlayerChat@@QAEHPAD@Z 1003753f f   KPlayerChat.obj
 0001:000365fb       ?GetFriendNode@KPlayerChat@@QAEPAVCChatFriend@@K@Z 100375fb f   KPlayerChat.obj
 0001:00036695       ?GetTeamNo@KPlayerChat@@QAEHK@Z 10037695 f   KPlayerChat.obj
 0001:0003674d       ?GetName@KPlayerChat@@QAEHKPAD@Z 1003774d f   KPlayerChat.obj
 0001:00036815       ?SetCurChannel@KPlayerChat@@QAEXHKH@Z 10037815 f   KPlayerChat.obj
 0001:000368cf       ?AddChannel@KPlayerChat@@QAEXH@Z 100378cf f   KPlayerChat.obj
 0001:0003696d       ?SubChannel@KPlayerChat@@QAEXH@Z 1003796d f   KPlayerChat.obj
 0001:000369fd       ?SendTakeChannel@KPlayerChat@@QAEXXZ 100379fd f   KPlayerChat.obj
 0001:00036a69       ?SendSentence@KPlayerChat@@QAEXPAUKUiMsgParam@@PAD@Z 10037a69 f   KPlayerChat.obj
 0001:00036ca5       ?QQSendSentence@KPlayerChat@@QAEXKHPAUKUiMsgParam@@PAD@Z 10037ca5 f   KPlayerChat.obj
 0001:00036e5d       ?SetTakeChannel@KPlayerChat@@QAEXK@Z 10037e5d f   KPlayerChat.obj
 0001:00036e8f       ?GetChat@KPlayerChat@@QAEXPAUPLAYER_SEND_CHAT_DATA_SYNC@@@Z 10037e8f f   KPlayerChat.obj
 0001:00037768       ?ApplyAddFriend@KPlayerChat@@QAEXKPAD@Z 10038768 f   KPlayerChat.obj
 0001:000378e9       ?GetApplyOneInfo@KPlayerChat@@QAEHPAHPAD1@Z 100388e9 f   KPlayerChat.obj
 0001:000379cb       ?SaveTeamInfo@KPlayerChat@@QAEXPAD@Z 100389cb f   KPlayerChat.obj
 0001:00037cfd       ?SaveTakeChannelInfo@KPlayerChat@@QAEXPAD@Z 10038cfd f   KPlayerChat.obj
 0001:00037e76       ?LoadTakeChannelInfo@KPlayerChat@@QAEXPAD@Z 10038e76 f   KPlayerChat.obj
 0001:0003808a       ?CheckTeamNo@KPlayerChat@@QAEHPAD0@Z 1003908a f   KPlayerChat.obj
 0001:0003842b       ?LoadTeamName@KPlayerChat@@QAEXPAD@Z 1003942b f   KPlayerChat.obj
 0001:000386a1       ?AddOne@KPlayerChat@@QAEXKHPADH@Z 100396a1 f   KPlayerChat.obj
 0001:000387d1       ?CheckIsFriend@KPlayerChat@@QAEHH@Z 100397d1 f   KPlayerChat.obj
 0001:0003886d       ?AddTeam@KPlayerChat@@QAEHPAD0@Z 1003986d f   KPlayerChat.obj
 0001:00038a85       ?RenameTeam@KPlayerChat@@QAEHHPAD0@Z 10039a85 f   KPlayerChat.obj
 0001:00038c16       ?DeleteTeam@KPlayerChat@@QAEHHPAD@Z 10039c16 f   KPlayerChat.obj
 0001:00038da7       ?OneFriendChangeTeam@KPlayerChat@@QAEHKHH@Z 10039da7 f   KPlayerChat.obj
 0001:00038edc       ?GetMsgOffLine@KPlayerChat@@QAEXK@Z 10039edc f   KPlayerChat.obj
 0001:00038ff9       ?CheckTakeChannel@KPlayerChat@@QAEHH@Z 10039ff9 f   KPlayerChat.obj
 0001:00039030       ?ApplyDeleteFriend@KPlayerChat@@QAEXKHPAD@Z 1003a030 f   KPlayerChat.obj
 0001:00039187       ?CheckTalkChannel@KPlayerChat@@QAEHH@Z 1003a187 f   KPlayerChat.obj
 0001:000391be       ?SendSelectChannelList@KPlayerChat@@QAEHPAUKUiChatChannel@@H@Z 1003a1be f   KPlayerChat.obj
 0001:0003944e       ?SendTakeChannelList@KPlayerChat@@QAEHPAUKUiChatChannel@@H@Z 1003a44e f   KPlayerChat.obj
 0001:000396d3       ?GetCurChannel@KPlayerChat@@QAEHPAUKUiChatChannel@@@Z 1003a6d3 f   KPlayerChat.obj
 0001:00039879       ?IGetTeamInfo@KPlayerChat@@QAEHHPAUKUiChatGroupInfo@@@Z 1003a879 f   KPlayerChat.obj
 0001:00039920       ?IGetTeamFriendInfo@KPlayerChat@@QAEHHPAUKUiPlayerItem@@@Z 1003a920 f   KPlayerChat.obj
 0001:00039a50       ??0CChatFriendTeam@@QAE@XZ 1003aa50 f   KPlayerChat.obj
 0001:00039a96       ?Release@CChatFriendTeam@@QAEXXZ 1003aa96 f   KPlayerChat.obj
 0001:00039b48       ?SetTime@KCHAT_RECORDER@@AAEXXZ 1003ab48 f   KPlayerChat.obj
 0001:00039bfb       ?SaveSentenceSingle@KCHAT_RECORDER@@QAEXPAD000@Z 1003abfb f   KPlayerChat.obj
 0001:00039c54       ?SaveSentenceChannel@KCHAT_RECORDER@@QAEXPAD00@Z 1003ac54 f   KPlayerChat.obj
 0001:00039cb0       ??0PLAYER_SEND_CHAT_DATA_COMMAND@@QAE@XZ 1003acb0 f i KPlayerChat.obj
 0001:00039cf0       ?IsEmpty@KList@@QAEHXZ     1003acf0 f i KPlayerChat.obj
 0001:00039d20       ??0CChatFriend@@QAE@XZ     1003ad20 f i KPlayerChat.obj
 0001:00039d90       ?Release@CChatFriend@@QAEXXZ 1003ad90 f i KPlayerChat.obj
 0001:00039dd0       ??_ECChatFriend@@UAEPAXI@Z 1003add0 f i KPlayerChat.obj
 0001:00039dd0       ??_GCChatFriend@@UAEPAXI@Z 1003add0 f i KPlayerChat.obj
 0001:00039e10       ??1CChatFriend@@UAE@XZ     1003ae10 f i KPlayerChat.obj
 0001:00039e40       ??0KPlayerFaction@@QAE@XZ  1003ae40 f   KPlayerFaction.obj
 0001:00039e67       ?Release@KPlayerFaction@@QAEXXZ 1003ae67 f   KPlayerFaction.obj
 0001:00039e96       ?SetSeries@KPlayerFaction@@QAEXH@Z 1003ae96 f   KPlayerFaction.obj
 0001:00039eaa       ?AddFaction@KPlayerFaction@@QAEHHPAD@Z 1003aeaa f   KPlayerFaction.obj
 0001:00039f00       ?AddFaction@KPlayerFaction@@QAEHHH@Z 1003af00 f   KPlayerFaction.obj
 0001:00039f82       ?LeaveFaction@KPlayerFaction@@QAEXXZ 1003af82 f   KPlayerFaction.obj
 0001:00039f9d       ?OpenCurSkillLevel@KPlayerFaction@@QAEHHPAVKSkillList@@@Z 1003af9d f   KPlayerFaction.obj
 0001:00039fb6       ?GetGurFactionCamp@KPlayerFaction@@QAEHXZ 1003afb6 f   KPlayerFaction.obj
 0001:0003a016       ?GetCurFactionNo@KPlayerFaction@@QAEHXZ 1003b016 f   KPlayerFaction.obj
 0001:0003a02d       ?GetCurFactionName@KPlayerFaction@@QAEXPAD@Z 1003b02d f   KPlayerFaction.obj
 0001:0003a0a0       ??0KPlayerMenuState@@QAE@XZ 1003b0a0 f   KPlayerMenuState.obj
 0001:0003a0c7       ?Release@KPlayerMenuState@@QAEXXZ 1003b0c7 f   KPlayerMenuState.obj
 0001:0003a123       ?SetState@KPlayerMenuState@@QAEXH@Z 1003b123 f   KPlayerMenuState.obj
 0001:0003a14d       ?Init@KPlayerMenuStateGraph@@QAEHXZ 1003b14d f   KPlayerMenuState.obj
 0001:0003a262       ?GetStateSpr@KPlayerMenuStateGraph@@QAEXHPAD@Z 1003b262 f   KPlayerMenuState.obj
 0001:0003a2c0       ?Init@KPlayerPK@@QAEXXZ    1003b2c0 f   KPlayerPK.obj
 0001:0003a312       ?Active@KPlayerPK@@QAEXXZ  1003b312 f   KPlayerPK.obj
 0001:0003a336       ?SetNormalPKState@KPlayerPK@@QAEXHH@Z 1003b336 f   KPlayerPK.obj
 0001:0003a3ec       ?ApplySetNormalPKState@KPlayerPK@@QAEXH@Z 1003b3ec f   KPlayerPK.obj
 0001:0003a458       ?GetNormalPKState@KPlayerPK@@QAEHXZ 1003b458 f   KPlayerPK.obj
 0001:0003a46f       ?ApplyEnmityPK@KPlayerPK@@QAEXPAD@Z 1003b46f f   KPlayerPK.obj
 0001:0003a4d9       ?ApplyEnmityPK@KPlayerPK@@QAEXH@Z 1003b4d9 f   KPlayerPK.obj
 0001:0003a624       ?SetEnmityPKState@KPlayerPK@@QAEXHHPAD@Z 1003b624 f   KPlayerPK.obj
 0001:0003a84d       ?EnmityPKCountDown@KPlayerPK@@QAEXXZ 1003b84d f   KPlayerPK.obj
 0001:0003a88a       ?SetExercisePKState@KPlayerPK@@QAEXHHPAD@Z 1003b88a f   KPlayerPK.obj
 0001:0003a90c       ?SetPKValue@KPlayerPK@@QAEXH@Z 1003b90c f   KPlayerPK.obj
 0001:0003aa0b       ??0KPlayerSet@@QAE@XZ      1003ba0b f   KPlayerSet.obj
 0001:0003aaab       ?Init@KPlayerSet@@QAEHXZ   1003baab f   KPlayerSet.obj
 0001:0003ad1b       ?FindFree@KPlayerSet@@AAEHXZ 1003bd1b f   KPlayerSet.obj
 0001:0003ad4d       ?FindSame@KPlayerSet@@QAEHK@Z 1003bd4d f   KPlayerSet.obj
 0001:0003add6       ?GetFirstPlayer@KPlayerSet@@QAEHXZ 1003bdd6 f   KPlayerSet.obj
 0001:0003ae17       ?GetNextPlayer@KPlayerSet@@QAEHXZ 1003be17 f   KPlayerSet.obj
 0001:0003ae6a       ??0KLevelAdd@@QAE@XZ       1003be6a f   KPlayerSet.obj
 0001:0003af1e       ?Init@KLevelAdd@@QAEHXZ    1003bf1e f   KPlayerSet.obj
 0001:0003b2d6       ?GetLevelExp@KLevelAdd@@QAEHH@Z 1003c2d6 f   KPlayerSet.obj
 0001:0003b307       ?GetLifePerLevel@KLevelAdd@@QAEHH@Z 1003c307 f   KPlayerSet.obj
 0001:0003b338       ?GetStaminaPerLevel@KLevelAdd@@QAEHH@Z 1003c338 f   KPlayerSet.obj
 0001:0003b369       ?GetManaPerLevel@KLevelAdd@@QAEHH@Z 1003c369 f   KPlayerSet.obj
 0001:0003b39a       ?GetLifePerVitality@KLevelAdd@@QAEHH@Z 1003c39a f   KPlayerSet.obj
 0001:0003b3cb       ?GetStaminaPerVitality@KLevelAdd@@QAEHH@Z 1003c3cb f   KPlayerSet.obj
 0001:0003b3fc       ?GetManaPerEnergy@KLevelAdd@@QAEHH@Z 1003c3fc f   KPlayerSet.obj
 0001:0003b42d       ?GetLeadExpShare@KLevelAdd@@QAEHH@Z 1003c42d f   KPlayerSet.obj
 0001:0003b45e       ?GetFireResist@KLevelAdd@@QAEHHH@Z 1003c45e f   KPlayerSet.obj
 0001:0003b4ae       ?GetColdResist@KLevelAdd@@QAEHHH@Z 1003c4ae f   KPlayerSet.obj
 0001:0003b4fe       ?GetPoisonResist@KLevelAdd@@QAEHHH@Z 1003c4fe f   KPlayerSet.obj
 0001:0003b54e       ?GetLightResist@KLevelAdd@@QAEHHH@Z 1003c54e f   KPlayerSet.obj
 0001:0003b59e       ?GetPhysicsResist@KLevelAdd@@QAEHHH@Z 1003c59e f   KPlayerSet.obj
 0001:0003b5ee       ??0KTeamLeadExp@@QAE@XZ    1003c5ee f   KPlayerSet.obj
 0001:0003b641       ?Init@KTeamLeadExp@@QAEHXZ 1003c641 f   KPlayerSet.obj
 0001:0003b774       ?GetLevel@KTeamLeadExp@@QAEHKH@Z 1003c774 f   KPlayerSet.obj
 0001:0003b810       ?GetMemNumFromExp@KTeamLeadExp@@QAEHK@Z 1003c810 f   KPlayerSet.obj
 0001:0003b852       ?GetMemNumFromLevel@KTeamLeadExp@@QAEHH@Z 1003c852 f   KPlayerSet.obj
 0001:0003b883       ?GetLevelExp@KTeamLeadExp@@QAEHH@Z 1003c883 f   KPlayerSet.obj
 0001:0003b8b1       ??0KNewPlayerAttribute@@QAE@XZ 1003c8b1 f   KPlayerSet.obj
 0001:0003b92c       ?Init@KNewPlayerAttribute@@QAEHXZ 1003c92c f   KPlayerSet.obj
 0001:0003bc40       ??1KPlayerSet@@QAE@XZ      1003cc40 f i KPlayerSet.obj
 0001:0003bcc0       ??0KPlayerTask@@QAE@XZ     1003ccc0 f   KPlayerTask.obj
 0001:0003bce7       ?Release@KPlayerTask@@QAEXXZ 1003cce7 f   KPlayerTask.obj
 0001:0003bd2f       ?ClearTempVar@KPlayerTask@@QAEXXZ 1003cd2f f   KPlayerTask.obj
 0001:0003bd63       ?GetSaveVal@KPlayerTask@@QAEHH@Z 1003cd63 f   KPlayerTask.obj
 0001:0003bd93       ?SetSaveVal@KPlayerTask@@QAEXHH@Z 1003cd93 f   KPlayerTask.obj
 0001:0003bdc4       ?GetClearVal@KPlayerTask@@QAEHH@Z 1003cdc4 f   KPlayerTask.obj
 0001:0003bdf8       ?SetClearVal@KPlayerTask@@QAEXHH@Z 1003cdf8 f   KPlayerTask.obj
 0001:0003be63       ??0KPlayerTeam@@QAE@XZ     1003ce63 f   KPlayerTeam.obj
 0001:0003be9f       ?Release@KPlayerTeam@@QAEXXZ 1003ce9f f   KPlayerTeam.obj
 0001:0003befe       ?ReleaseList@KPlayerTeam@@QAEXXZ 1003cefe f   KPlayerTeam.obj
 0001:0003bf4f       ?ApplyCreate@KPlayerTeam@@QAEHXZ 1003cf4f f   KPlayerTeam.obj
 0001:0003bfc4       ?InviteAdd@KPlayerTeam@@QAEXK@Z 1003cfc4 f   KPlayerTeam.obj
 0001:0003c02c       ?ReceiveInvite@KPlayerTeam@@QAEXPAUTEAM_INVITE_ADD_SYNC@@@Z 1003d02c f   KPlayerTeam.obj
 0001:0003c145       ?ReplyInvite@KPlayerTeam@@QAEXHH@Z 1003d145 f   KPlayerTeam.obj
 0001:0003c1c7       ?SetAutoRefuseInvite@KPlayerTeam@@QAEXH@Z 1003d1c7 f   KPlayerTeam.obj
 0001:0003c267       ?GetAutoRefuseState@KPlayerTeam@@QAEHXZ 1003d267 f   KPlayerTeam.obj
 0001:0003c27f       ?GetInfo@KPlayerTeam@@QAEHPAUKUiPlayerTeam@@@Z 1003d27f f   KPlayerTeam.obj
 0001:0003c370       ?UpdateInterface@KPlayerTeam@@QAEXXZ 1003d370 f   KPlayerTeam.obj
 0001:0003c3c8       ?DeleteOneFromApplyList@KPlayerTeam@@QAEXK@Z 1003d3c8 f   KPlayerTeam.obj
 0001:0003c42f       ??0KTeam@@QAE@XZ           1003d42f f   KPlayerTeam.obj
 0001:0003c456       ?Release@KTeam@@QAEXXZ     1003d456 f   KPlayerTeam.obj
 0001:0003c50c       ?SetIndex@KTeam@@QAEXH@Z   1003d50c f   KPlayerTeam.obj
 0001:0003c528       ?FindFree@KTeam@@QAEHXZ    1003d528 f   KPlayerTeam.obj
 0001:0003c572       ?FindMemberID@KTeam@@QAEHK@Z 1003d572 f   KPlayerTeam.obj
 0001:0003c5cd       ?SetTeamOpen@KTeam@@QAEHXZ 1003d5cd f   KPlayerTeam.obj
 0001:0003c602       ?SetTeamClose@KTeam@@QAEHXZ 1003d602 f   KPlayerTeam.obj
 0001:0003c637       ?CalcCaptainPower@KTeam@@QAEHXZ 1003d637 f   KPlayerTeam.obj
 0001:0003c663       ?CreateTeam@KTeam@@QAEXHPADHK@Z 1003d663 f   KPlayerTeam.obj
 0001:0003c6ba       ?AddMember@KTeam@@QAEHKHPAD@Z 1003d6ba f   KPlayerTeam.obj
 0001:0003c778       ?DeleteMember@KTeam@@QAEXK@Z 1003d778 f   KPlayerTeam.obj
 0001:0003c81b       ?GetMemberInfo@KTeam@@QAEHPAUKUiPlayerItem@@H@Z 1003d81b f   KPlayerTeam.obj
 0001:0003c960       ??0KTeamApplyList@@QAE@XZ  1003d960 f i KPlayerTeam.obj
 0001:0003c990       ?Release@KTeamApplyList@@QAEXXZ 1003d990 f i KPlayerTeam.obj
 0001:0003c9d0       ?Init@KPlayerTong@@QAEXH@Z 1003d9d0 f   KPlayerTong.obj
 0001:0003c9fe       ?Clear@KPlayerTong@@QAEXXZ 1003d9fe f   KPlayerTong.obj
 0001:0003ca57       ?ApplyCreateTong@KPlayerTong@@QAEHHPAD@Z 1003da57 f   KPlayerTong.obj
 0001:0003ce98       ?ApplyAddTong@KPlayerTong@@QAEHK@Z 1003de98 f   KPlayerTong.obj
 0001:0003d08a       ?Create@KPlayerTong@@QAEXPAUTONG_CREATE_SYNC@@@Z 1003e08a f   KPlayerTong.obj
 0001:0003d1d3       ?AcceptMember@KPlayerTong@@QAEXHKH@Z 1003e1d3 f   KPlayerTong.obj
 0001:0003d26c       ?GetTongName@KPlayerTong@@QAEXPAD@Z 1003e26c f   KPlayerTong.obj
 0001:0003d2b6       ?AddTong@KPlayerTong@@QAEHHPAD00@Z 1003e2b6 f   KPlayerTong.obj
 0001:0003d428       ?ApplyInstate@KPlayerTong@@QAEHHHHHPAD@Z 1003e428 f   KPlayerTong.obj
 0001:0003d65e       ?ApplyKick@KPlayerTong@@QAEHHHPAD@Z 1003e65e f   KPlayerTong.obj
 0001:0003d78f       ?ApplyChangeMaster@KPlayerTong@@QAEHHHPAD@Z 1003e78f f   KPlayerTong.obj
 0001:0003d88a       ?ApplyLeave@KPlayerTong@@QAEHXZ 1003e88a f   KPlayerTong.obj
 0001:0003da17       ?ApplyInfo@KPlayerTong@@QAEHHHHHPAD@Z 1003ea17 f   KPlayerTong.obj
 0001:0003dcd7       ?GetTongNameID@KPlayerTong@@QAEKXZ 1003ecd7 f   KPlayerTong.obj
 0001:0003dd10       ?CanGetManagerInfo@KPlayerTong@@QAEHK@Z 1003ed10 f   KPlayerTong.obj
 0001:0003dd7a       ?CanGetMemberInfo@KPlayerTong@@QAEHK@Z 1003ed7a f   KPlayerTong.obj
 0001:0003dde4       ?SetSelfInfo@KPlayerTong@@QAEXPAUTONG_SELF_INFO_SYNC@@@Z 1003ede4 f   KPlayerTong.obj
 0001:0003e029       ?OpenCreateInterface@KPlayerTong@@QAEXXZ 1003f029 f   KPlayerTong.obj
 0001:0003e060       ??0KTrade@@QAE@XZ          1003f060 f   KPlayerTrade.obj
 0001:0003e087       ?Release@KTrade@@QAEXXZ    1003f087 f   KPlayerTrade.obj
 0001:0003e0ef       ?StartTrade@KTrade@@QAEHHHH@Z 1003f0ef f   KPlayerTrade.obj
 0001:0003e1c2       ?Lock@KTrade@@QAEXH@Z      1003f1c2 f   KPlayerTrade.obj
 0001:0003e1fc       ?SetTradeState@KTrade@@QAEXHHHH@Z 1003f1fc f   KPlayerTrade.obj
 0001:0003e3f6       ?ReplyInvite@KTrade@@SAXHH@Z 1003f3f6 f   KPlayerTrade.obj
 0001:0003e480       ??0KSprControl@@QAE@XZ     1003f480 f   KSprControl.obj
 0001:0003e4a7       ?Release@KSprControl@@QAEXXZ 1003f4a7 f   KSprControl.obj
 0001:0003e537       ?SetSprFile@KSprControl@@QAEXPADHHH@Z 1003f537 f   KSprControl.obj
 0001:0003e636       ?SetCurFrame@KSprControl@@QAEXH@Z 1003f636 f   KSprControl.obj
 0001:0003e6ab       ?SetDirFrame@KSprControl@@QAEXHH@Z 1003f6ab f   KSprControl.obj
 0001:0003e734       ?Set64DirFrame@KSprControl@@QAEXHH@Z 1003f734 f   KSprControl.obj
 0001:0003e7fc       ?SetCurDir@KSprControl@@QAEHH@Z 1003f7fc f   KSprControl.obj
 0001:0003e865       ?SetCurDir64@KSprControl@@QAEHH@Z 1003f865 f   KSprControl.obj
 0001:0003e912       ?SetCenterPos@KSprControl@@QAEXHH@Z 1003f912 f   KSprControl.obj
 0001:0003e938       ?GetOneDirFrames@KSprControl@@QAEHXZ 1003f938 f   KSprControl.obj
 0001:0003e957       ?SetPos@KSprControl@@QAEXHH@Z 1003f957 f   KSprControl.obj
 0001:0003e97d       ?CheckEnd@KSprControl@@QAEHXZ 1003f97d f   KSprControl.obj
 0001:0003e9bc       ?SetDirStart@KSprControl@@QAEXXZ 1003f9bc f   KSprControl.obj
 0001:0003e9f6       ?SetDirEnd@KSprControl@@QAEXXZ 1003f9f6 f   KSprControl.obj
 0001:0003ea2c       ?GetCurDirFrameNo@KSprControl@@QAEHXZ 1003fa2c f   KSprControl.obj
 0001:0003ea5c       ?GetNextFrame@KSprControl@@QAEHH@Z 1003fa5c f   KSprControl.obj
 0001:0003ebb1       ?GetPrevFrame@KSprControl@@QAEHH@Z 1003fbb1 f   KSprControl.obj
 0001:0003ec73       ?SetFileName@KSprControl@@QAEXPAD@Z 1003fc73 f   KSprControl.obj
 0001:0003ecc9       ?SetTotalFrame@KSprControl@@QAEXH@Z 1003fcc9 f   KSprControl.obj
 0001:0003ecec       ?SetTotalDir@KSprControl@@QAEXH@Z 1003fcec f   KSprControl.obj
 0001:0003ed0f       ?SetInterVal@KSprControl@@QAEXK@Z 1003fd0f f   KSprControl.obj
 0001:0003ed30       ?LoadRecord@@YAHPAVKTabFile@@HPBUtagPROPINFO@@H@Z 1003fd30 f   KBasPropTbl.obj
 0001:0003eed0       ??0KLibOfBPT@@QAE@XZ       1003fed0 f   KBasPropTbl.obj
 0001:0003f072       ??1KLibOfBPT@@QAE@XZ       10040072 f   KBasPropTbl.obj
 0001:0003f207       ?Init@KLibOfBPT@@QAEHXZ    10040207 f   KBasPropTbl.obj
 0001:0003f38d       ?InitMAIT@KLibOfBPT@@IAEHXZ 1004038d f   KBasPropTbl.obj
 0001:0003f607       ?InitMALib@KLibOfBPT@@IAEHXZ 10040607 f   KBasPropTbl.obj
 0001:0003f810       ?GetGoldItemRecord@KLibOfBPT@@QBEPBUKBASICPROP_EQUIPMENT_GOLD@@H@Z 10040810 f   KBasPropTbl.obj
 0001:0003f840       ?GetGoldItemNumber@KLibOfBPT@@QBE?BHXZ 10040840 f   KBasPropTbl.obj
 0001:0003f86a       ?GetCMAT@KLibOfBPT@@QBEPBVKBPT_ClassifiedMAT@@HH@Z 1004086a f   KBasPropTbl.obj
 0001:0003f96b       ?GetCMIT@KLibOfBPT@@QBEPBVKBPT_ClassMAIT@@HHHH@Z 1004096b f   KBasPropTbl.obj
 0001:0003fb03       ?GetMARecord@KLibOfBPT@@QBEPBUKMAGICATTRIB_TABFILE@@H@Z 10040b03 f   KBasPropTbl.obj
 0001:0003fb33       ?GetMARecordNumber@KLibOfBPT@@QBE?BHXZ 10040b33 f   KBasPropTbl.obj
 0001:0003fb5d       ?GetMeleeWeaponRecord@KLibOfBPT@@QBEPBUKBASICPROP_EQUIPMENT@@H@Z 10040b5d f   KBasPropTbl.obj
 0001:0003fb8d       ?GetMeleeWeaponRecordNumber@KLibOfBPT@@QBE?BHXZ 10040b8d f   KBasPropTbl.obj
 0001:0003fbb7       ?GetRangeWeaponRecord@KLibOfBPT@@QBEPBUKBASICPROP_EQUIPMENT@@H@Z 10040bb7 f   KBasPropTbl.obj
 0001:0003fbe7       ?GetRangeWeaponRecordNumber@KLibOfBPT@@QBE?BHXZ 10040be7 f   KBasPropTbl.obj
 0001:0003fc11       ?GetArmorRecord@KLibOfBPT@@QBEPBUKBASICPROP_EQUIPMENT@@H@Z 10040c11 f   KBasPropTbl.obj
 0001:0003fc41       ?GetArmorRecordNumber@KLibOfBPT@@QBE?BHXZ 10040c41 f   KBasPropTbl.obj
 0001:0003fc6b       ?GetHelmRecord@KLibOfBPT@@QBEPBUKBASICPROP_EQUIPMENT@@H@Z 10040c6b f   KBasPropTbl.obj
 0001:0003fc9b       ?GetHelmRecordNumber@KLibOfBPT@@QBE?BHXZ 10040c9b f   KBasPropTbl.obj
 0001:0003fcc5       ?GetBootRecord@KLibOfBPT@@QBEPBUKBASICPROP_EQUIPMENT@@H@Z 10040cc5 f   KBasPropTbl.obj
 0001:0003fcf5       ?GetBootRecordNumber@KLibOfBPT@@QBE?BHXZ 10040cf5 f   KBasPropTbl.obj
 0001:0003fd1f       ?GetBeltRecord@KLibOfBPT@@QBEPBUKBASICPROP_EQUIPMENT@@H@Z 10040d1f f   KBasPropTbl.obj
 0001:0003fd4f       ?GetBeltRecordNumber@KLibOfBPT@@QBE?BHXZ 10040d4f f   KBasPropTbl.obj
 0001:0003fd79       ?GetAmuletRecord@KLibOfBPT@@QBEPBUKBASICPROP_EQUIPMENT@@H@Z 10040d79 f   KBasPropTbl.obj
 0001:0003fda9       ?GetAmuletRecordNumber@KLibOfBPT@@QBE?BHXZ 10040da9 f   KBasPropTbl.obj
 0001:0003fdd3       ?GetRingRecord@KLibOfBPT@@QBEPBUKBASICPROP_EQUIPMENT@@H@Z 10040dd3 f   KBasPropTbl.obj
 0001:0003fe03       ?GetRingRecordNumber@KLibOfBPT@@QBE?BHXZ 10040e03 f   KBasPropTbl.obj
 0001:0003fe2d       ?GetCuffRecord@KLibOfBPT@@QBEPBUKBASICPROP_EQUIPMENT@@H@Z 10040e2d f   KBasPropTbl.obj
 0001:0003fe5d       ?GetCuffRecordNumber@KLibOfBPT@@QBE?BHXZ 10040e5d f   KBasPropTbl.obj
 0001:0003fe87       ?GetPendantRecord@KLibOfBPT@@QBEPBUKBASICPROP_EQUIPMENT@@H@Z 10040e87 f   KBasPropTbl.obj
 0001:0003feb7       ?GetPendantRecordNumber@KLibOfBPT@@QBE?BHXZ 10040eb7 f   KBasPropTbl.obj
 0001:0003fee1       ?GetHorseRecord@KLibOfBPT@@QBEPBUKBASICPROP_EQUIPMENT@@H@Z 10040ee1 f   KBasPropTbl.obj
 0001:0003ff11       ?GetHorseRecordNumber@KLibOfBPT@@QBE?BHXZ 10040f11 f   KBasPropTbl.obj
 0001:0003ff3b       ?GetMedicineRecord@KLibOfBPT@@QBEPBUKBASICPROP_MEDICINE@@H@Z 10040f3b f   KBasPropTbl.obj
 0001:0003ff65       ?GetMedicineRecordNumber@KLibOfBPT@@QBE?BHXZ 10040f65 f   KBasPropTbl.obj
 0001:0003ff89       ?GetQuestRecord@KLibOfBPT@@QBEPBUKBASICPROP_QUEST@@H@Z 10040f89 f   KBasPropTbl.obj
 0001:0003ffb9       ?GetQuestRecordNumber@KLibOfBPT@@QBE?BHXZ 10040fb9 f   KBasPropTbl.obj
 0001:0003ffe3       ?GetTownPortalRecord@KLibOfBPT@@QBEPBUKBASICPROP_TOWNPORTAL@@H@Z 10040fe3 f   KBasPropTbl.obj
 0001:00040013       ?GetTownPortalRecordNumber@KLibOfBPT@@QBE?BHXZ 10041013 f   KBasPropTbl.obj
 0001:0004003d       ?FindEquipmentUnique@KLibOfBPT@@QBEPBUKBASICPROP_EQUIPMENT_UNIQUE@@HHH@Z 1004103d f   KBasPropTbl.obj
 0001:00040053       ?GetMedMaterial@KLibOfBPT@@QBEPBUKBASICPROP_MEDMATERIAL@@H@Z 10041053 f   KBasPropTbl.obj
 0001:00040069       ?FindMedicine@KLibOfBPT@@QBEPBUKBASICPROP_MEDICINE@@HH@Z 10041069 f   KBasPropTbl.obj
 0001:0004007f       ?GetMine@KLibOfBPT@@QBEPBUKBASICPROP_MINE@@H@Z 1004107f f   KBasPropTbl.obj
 0001:00040095       ??0KBasicPropertyTable@@QAE@XZ 10041095 f   KBasPropTbl.obj
 0001:000400d8       ??1KBasicPropertyTable@@QAE@XZ 100410d8 f   KBasPropTbl.obj
 0001:00040105       ?SetCount@KBasicPropertyTable@@IAEXH@Z 10041105 f   KBasPropTbl.obj
 0001:0004019d       ?GetMemory@KBasicPropertyTable@@IAEHXZ 1004119d f   KBasPropTbl.obj
 0001:000402be       ?ReleaseMemory@KBasicPropertyTable@@IAEXXZ 100412be f   KBasPropTbl.obj
 0001:00040315       ?Load@KBasicPropertyTable@@UAEHXZ 10041315 f   KBasPropTbl.obj
 0001:00040637       ??0KBPT_Mine@@QAE@XZ       10041637 f   KBasPropTbl.obj
 0001:00040685       ??1KBPT_Mine@@QAE@XZ       10041685 f   KBasPropTbl.obj
 0001:000406b2       ?LoadRecord@KBPT_Mine@@MAEHHPAVKTabFile@@@Z 100416b2 f   KBasPropTbl.obj
 0001:000408f0       ?GetRecord@KBPT_Mine@@QBEPBUKBASICPROP_MINE@@H@Z 100418f0 f   KBasPropTbl.obj
 0001:000409de       ??0KBPT_TownPortal@@QAE@XZ 100419de f   KBasPropTbl.obj
 0001:00040a2c       ??1KBPT_TownPortal@@QAE@XZ 10041a2c f   KBasPropTbl.obj
 0001:00040a59       ?LoadRecord@KBPT_TownPortal@@MAEHHPAVKTabFile@@@Z 10041a59 f   KBasPropTbl.obj
 0001:00040bee       ?GetRecord@KBPT_TownPortal@@QBEPBUKBASICPROP_TOWNPORTAL@@H@Z 10041bee f   KBasPropTbl.obj
 0001:00040cbf       ??0KBPT_Quest@@QAE@XZ      10041cbf f   KBasPropTbl.obj
 0001:00040d0d       ??1KBPT_Quest@@QAE@XZ      10041d0d f   KBasPropTbl.obj
 0001:00040d3a       ?LoadRecord@KBPT_Quest@@MAEHHPAVKTabFile@@@Z 10041d3a f   KBasPropTbl.obj
 0001:00040ecc       ?GetRecord@KBPT_Quest@@QBEPBUKBASICPROP_QUEST@@H@Z 10041ecc f   KBasPropTbl.obj
 0001:00040f9d       ?FindRecord@KBPT_Quest@@QBEPBUKBASICPROP_QUEST@@H@Z 10041f9d f   KBasPropTbl.obj
 0001:0004104c       ??0KBPT_Medicine@@QAE@XZ   1004204c f   KBasPropTbl.obj
 0001:0004109a       ??1KBPT_Medicine@@QAE@XZ   1004209a f   KBasPropTbl.obj
 0001:000410c7       ?LoadRecord@KBPT_Medicine@@MAEHHPAVKTabFile@@@Z 100420c7 f   KBasPropTbl.obj
 0001:000413d5       ?GetRecord@KBPT_Medicine@@QBEPBUKBASICPROP_MEDICINE@@H@Z 100423d5 f   KBasPropTbl.obj
 0001:000414a6       ?FindRecord@KBPT_Medicine@@QBEPBUKBASICPROP_MEDICINE@@HH@Z 100424a6 f   KBasPropTbl.obj
 0001:00041563       ??0KBPT_MedMaterial@@QAE@XZ 10042563 f   KBasPropTbl.obj
 0001:000415b1       ??1KBPT_MedMaterial@@QAE@XZ 100425b1 f   KBasPropTbl.obj
 0001:000415de       ?LoadRecord@KBPT_MedMaterial@@MAEHHPAVKTabFile@@@Z 100425de f   KBasPropTbl.obj
 0001:000418ec       ?GetRecord@KBPT_MedMaterial@@QBEPBUKBASICPROP_MEDMATERIAL@@H@Z 100428ec f   KBasPropTbl.obj
 0001:000419da       ??0KBPT_Equipment@@QAE@XZ  100429da f   KBasPropTbl.obj
 0001:00041a14       ??1KBPT_Equipment@@QAE@XZ  10042a14 f   KBasPropTbl.obj
 0001:00041a41       ?Init@KBPT_Equipment@@QAEXH@Z 10042a41 f   KBasPropTbl.obj
 0001:00041a79       ?LoadRecord@KBPT_Equipment@@MAEHHPAVKTabFile@@@Z 10042a79 f   KBasPropTbl.obj
 0001:0004212f       ?GetRecord@KBPT_Equipment@@QBEPBUKBASICPROP_EQUIPMENT@@H@Z 1004312f f   KBasPropTbl.obj
 0001:00042200       ?FindRecord@KBPT_Equipment@@QBEPBUKBASICPROP_EQUIPMENT@@HHH@Z 10043200 f   KBasPropTbl.obj
 0001:000422ff       ??0KBPT_Equipment_Gold@@QAE@XZ 100432ff f   KBasPropTbl.obj
 0001:0004234d       ??1KBPT_Equipment_Gold@@UAE@XZ 1004334d f   KBasPropTbl.obj
 0001:0004237a       ?LoadRecord@KBPT_Equipment_Gold@@MAEHHPAVKTabFile@@@Z 1004337a f   KBasPropTbl.obj
 0001:00042d05       ?GetRecord@KBPT_Equipment_Gold@@QBEPBUKBASICPROP_EQUIPMENT_GOLD@@H@Z 10043d05 f   KBasPropTbl.obj
 0001:00042dd6       ?FindRecord@KBPT_Equipment_Gold@@QBEPBUKBASICPROP_EQUIPMENT_GOLD@@HHH@Z 10043dd6 f   KBasPropTbl.obj
 0001:00042edd       ??0KBPT_Equipment_Unique@@QAE@XZ 10043edd f   KBasPropTbl.obj
 0001:00042f2b       ??1KBPT_Equipment_Unique@@QAE@XZ 10043f2b f   KBasPropTbl.obj
 0001:00042f58       ?LoadRecord@KBPT_Equipment_Unique@@MAEHHPAVKTabFile@@@Z 10043f58 f   KBasPropTbl.obj
 0001:0004389f       ?GetRecord@KBPT_Equipment_Unique@@QBEPBUKBASICPROP_EQUIPMENT_UNIQUE@@H@Z 1004489f f   KBasPropTbl.obj
 0001:00043970       ?FindRecord@KBPT_Equipment_Unique@@QBEPBUKBASICPROP_EQUIPMENT_UNIQUE@@HHH@Z 10044970 f   KBasPropTbl.obj
 0001:00043a77       ??0KBPT_MagicAttrib_TF@@QAE@XZ 10044a77 f   KBasPropTbl.obj
 0001:00043ada       ??1KBPT_MagicAttrib_TF@@QAE@XZ 10044ada f   KBasPropTbl.obj
 0001:00043b07       ?LoadRecord@KBPT_MagicAttrib_TF@@MAEHHPAVKTabFile@@@Z 10044b07 f   KBasPropTbl.obj
 0001:00043f46       ?GetRecord@KBPT_MagicAttrib_TF@@QBEPBUKMAGICATTRIB_TABFILE@@H@Z 10044f46 f   KBasPropTbl.obj
 0001:00044017       ?GetMACount@KBPT_MagicAttrib_TF@@QBEXPAH@Z 10045017 f   KBasPropTbl.obj
 0001:000440bb       ??0KBPT_ClassMAIT@@QAE@XZ  100450bb f   KBasPropTbl.obj
 0001:000440ed       ??1KBPT_ClassMAIT@@QAE@XZ  100450ed f   KBasPropTbl.obj
 0001:0004414b       ?Clear@KBPT_ClassMAIT@@QAEHXZ 1004514b f   KBasPropTbl.obj
 0001:0004416c       ?Get@KBPT_ClassMAIT@@QBEHH@Z 1004516c f   KBasPropTbl.obj
 0001:00044244       ?Insert@KBPT_ClassMAIT@@QAEHH@Z 10045244 f   KBasPropTbl.obj
 0001:000443da       ??0KBPT_ClassifiedMAT@@QAE@XZ 100453da f   KBasPropTbl.obj
 0001:0004440c       ??1KBPT_ClassifiedMAT@@QAE@XZ 1004540c f   KBasPropTbl.obj
 0001:00044430       ?GetMemory@KBPT_ClassifiedMAT@@QAEHH@Z 10045430 f   KBasPropTbl.obj
 0001:00044575       ?ReleaseMemory@KBPT_ClassifiedMAT@@IAEXXZ 10045575 f   KBasPropTbl.obj
 0001:000445c9       ?Set@KBPT_ClassifiedMAT@@QAEHH@Z 100455c9 f   KBasPropTbl.obj
 0001:000446bf       ?Get@KBPT_ClassifiedMAT@@QBEHH@Z 100456bf f   KBasPropTbl.obj
 0001:0004478a       ?GetAll@KBPT_ClassifiedMAT@@QBEHPAH0@Z 1004578a f   KBasPropTbl.obj
 0001:000448c0       ?NumOfEntries@KBasicPropertyTable@@QBEHXZ 100458c0 f i KBasPropTbl.obj
 0001:000448e0       ?GetRecordCount@KBPT_Equipment_Gold@@QBEHXZ 100458e0 f i KBasPropTbl.obj
 0001:00044910       ??_GKBPT_Equipment_Gold@@UAEPAXI@Z 10045910 f i KBasPropTbl.obj
 0001:00044910       ??_EKBPT_Equipment_Gold@@UAEPAXI@Z 10045910 f i KBasPropTbl.obj
 0001:000449ab       ??0KBuySell@@QAE@XZ        100459ab f   KBuySell.obj
 0001:000449fb       ??1KBuySell@@QAE@XZ        100459fb f   KBuySell.obj
 0001:00044b3a       ?Init@KBuySell@@QAEHXZ     10045b3a f   KBuySell.obj
 0001:000452aa       ?GetItem@KBuySell@@QAEPAVKItem@@H@Z 100462aa f   KBuySell.obj
 0001:000452ed       ?GetItemIndex@KBuySell@@QAEHHH@Z 100462ed f   KBuySell.obj
 0001:00045354       ?PaintItem@KBuySell@@QAEXHHH@Z 10046354 f   KBuySell.obj
 0001:000453e3       ?OpenSale@KBuySell@@QAEXH@Z 100463e3 f   KBuySell.obj
 0001:00045430       ??_GKInventory@@QAEPAXI@Z  10046430 f i KBuySell.obj
 0001:00045470       ??_EKItem@@QAEPAXI@Z       10046470 f i KBuySell.obj
 0001:00045500       ??0KInventory@@QAE@XZ      10046500 f   KInventory.obj
 0001:00045532       ??1KInventory@@QAE@XZ      10046532 f   KInventory.obj
 0001:00045556       ?Init@KInventory@@QAEHHH@Z 10046556 f   KInventory.obj
 0001:00045605       ?Release@KInventory@@QAEXXZ 10046605 f   KInventory.obj
 0001:0004566d       ?Clear@KInventory@@QAEXXZ  1004666d f   KInventory.obj
 0001:000456bc       ?PlaceItem@KInventory@@QAEHHHHHH@Z 100466bc f   KInventory.obj
 0001:00045859       ?HoldItem@KInventory@@QAEHHHH@Z 10046859 f   KInventory.obj
 0001:000458fa       ?PickUpItem@KInventory@@QAEHHHHHH@Z 100468fa f   KInventory.obj
 0001:00045a53       ?FindItem@KInventory@@QAEHHH@Z 10046a53 f   KInventory.obj
 0001:00045b15       ?FindRoom@KInventory@@QAEHHHPAUtagPOINT@@@Z 10046b15 f   KInventory.obj
 0001:00045c0c       ?CheckRoom@KInventory@@QAEHHHHH@Z 10046c0c f   KInventory.obj
 0001:00045d1e       ?AddMoney@KInventory@@QAEHH@Z 10046d1e f   KInventory.obj
 0001:00045d57       ?GetNextItem@KInventory@@QAEHHHHPAH0@Z 10046d57 f   KInventory.obj
 0001:00045e64       ?CalcSameDetailType@KInventory@@QAEHHH@Z 10046e64 f   KInventory.obj
 0001:00045f83       ?FindEmptyPlace@KInventory@@QAEHHHPAUtagPOINT@@@Z 10046f83 f   KInventory.obj
 0001:00046161       ?FindSameDetailType@KInventory@@QAEHHHPAH00@Z 10047161 f   KInventory.obj
 0001:00046264       ?CheckSameDetailType@KInventory@@QAEHHH@Z 10047264 f   KInventory.obj
 0001:00046330       ?GetWidth@KItem@@QBEHXZ    10047330 f i KInventory.obj
 0001:000463ce       ??0KItem@@QAE@XZ           100473ce f   KItem.obj
 0001:000464d0       ??1KItem@@QAE@XZ           100474d0 f   KItem.obj
 0001:000464e2       ?GetRequirement@KItem@@QAEPAXH@Z 100474e2 f   KItem.obj
 0001:00046522       ?ApplyMagicAttribToNPC@KItem@@QBEXPAVKNpc@@H@Z 10047522 f   KItem.obj
 0001:0004667b       ?RemoveMagicAttribFromNPC@KItem@@QBEXPAVKNpc@@H@Z 1004767b f   KItem.obj
 0001:00046867       ?ApplyHiddenMagicAttribToNPC@KItem@@QBEXPAVKNpc@@H@Z 10047867 f   KItem.obj
 0001:00046902       ?RemoveHiddenMagicAttribFromNPC@KItem@@QBEXPAVKNpc@@H@Z 10047902 f   KItem.obj
 0001:000469d7       ?SetAttrib_CBR@KItem@@AAEHPBUKBASICPROP_EQUIPMENT@@@Z 100479d7 f   KItem.obj
 0001:00046a7e       ?SetAttrib_Base@KItem@@AAEHPBUKEQCP_BASIC@@@Z 10047a7e f   KItem.obj
 0001:00046b55       ?SetAttrib_Req@KItem@@AAEHPBUKEQCP_REQ@@@Z 10047b55 f   KItem.obj
 0001:00046bdd       ?SetAttrib_MA@KItem@@AAEHPBUKMagicAttrib@@@Z 10047bdd f   KItem.obj
 0001:00046cb8       ?SetAttrib_MA@KItem@@AAEHPBUKMACP@@@Z 10047cb8 f   KItem.obj
 0001:00046dd1       ??4KItem@@AAEXABUKBASICPROP_EQUIPMENT@@@Z 10047dd1 f   KItem.obj
 0001:00046f21       ??4KItem@@AAEXABUKBASICPROP_MEDMATERIAL@@@Z 10047f21 f   KItem.obj
 0001:000470de       ??4KItem@@AAEXABUKBASICPROP_MINE@@@Z 100480de f   KItem.obj
 0001:0004721f       ??4KItem@@AAEXABUKBASICPROP_QUEST@@@Z 1004821f f   KItem.obj
 0001:0004739c       ??4KItem@@AAEXABUKBASICPROP_TOWNPORTAL@@@Z 1004839c f   KItem.obj
 0001:0004751c       ??4KItem@@AAEXABUKBASICPROP_MEDICINE@@@Z 1004851c f   KItem.obj
 0001:0004771a       ??4KItem@@AAEXABUKBASICPROP_EQUIPMENT_UNIQUE@@@Z 1004871a f   KItem.obj
 0001:0004783d       ??4KItem@@AAEXABUKBASICPROP_EQUIPMENT_GOLD@@@Z 1004883d f   KItem.obj
 0001:0004797e       ?Gen_Equipment_Unique@KItem@@AAEHPBUKBASICPROP_EQUIPMENT@@PBUKBASICPROP_EQUIPMENT_UNIQUE@@@Z 1004897e f   KItem.obj
 0001:00047b07       ?Remove@KItem@@QAEXXZ      10048b07 f   KItem.obj
 0001:00047b26       ?SetBaseAttrib@KItem@@QAEHPBUKMagicAttrib@@@Z 10048b26 f   KItem.obj
 0001:00047b9d       ?SetRequireAttrib@KItem@@QAEHPBUKMagicAttrib@@@Z 10048b9d f   KItem.obj
 0001:00047c14       ?SetMagicAttrib@KItem@@QAEHPBUKMagicAttrib@@@Z 10048c14 f   KItem.obj
 0001:00047c3e       ?Abrade@KItem@@QAEHH@Z     10048c3e f   KItem.obj
 0001:00047cbd       ?Paint@KItem@@QAEXHH@Z     10048cbd f   KItem.obj
 0001:00047d28       ?GetDesc@KItem@@QAEXPAD_NHH@Z 10048d28 f   KItem.obj
 0001:0004837a       ?GetMaxDurability@KItem@@QAEHXZ 1004937a f   KItem.obj
 0001:000483d7       ?GetTotalMagicLevel@KItem@@QAEHXZ 100493d7 f   KItem.obj
 0001:00048430       ?GetRepairPrice@KItem@@QAEHXZ 10049430 f   KItem.obj
 0001:000484e4       ?CanBeRepaired@KItem@@QAEHXZ 100494e4 f   KItem.obj
 0001:00048550       ?SetDurability@KItem@@QAEXH@Z 10049550 f i KItem.obj
 0001:00048570       ?GetDurability@KItem@@QAEHXZ 10049570 f i KItem.obj
 0001:000485eb       ?Init@KItemChangeRes@@QAEHXZ 100495eb f   KItemChangeRes.obj
 0001:000486c6       ?GetWeaponRes@KItemChangeRes@@QAEHHHH@Z 100496c6 f   KItemChangeRes.obj
 0001:00048791       ?GetArmorRes@KItemChangeRes@@QAEHHH@Z 10049791 f   KItemChangeRes.obj
 0001:0004882b       ?GetHelmRes@KItemChangeRes@@QAEHHH@Z 1004982b f   KItemChangeRes.obj
 0001:000488c5       ?GetHorseRes@KItemChangeRes@@QAEHHH@Z 100498c5 f   KItemChangeRes.obj
 0001:00048940       ??1KItemChangeRes@@QAE@XZ  10049940 f i KItemChangeRes.obj
 0001:00048a00       ??0KItemChangeRes@@QAE@XZ  10049a00 f i KItemChangeRes.obj
 0001:00048b1b       ??0KItemGenerator@@QAE@XZ  10049b1b f   KItemGenerator.obj
 0001:00048b42       ??1KItemGenerator@@QAE@XZ  10049b42 f   KItemGenerator.obj
 0001:00048b66       ?Init@KItemGenerator@@QAEHXZ 10049b66 f   KItemGenerator.obj
 0001:00048d2c       ?Gen_Medicine@KItemGenerator@@QAEHHHHPAVKItem@@@Z 10049d2c f   KItemGenerator.obj
 0001:00048e66       ?Gen_Item@KItemGenerator@@QAEHHHHHPAVKItem@@@Z 10049e66 f   KItemGenerator.obj
 0001:00049057       ?Gen_Equipment@KItemGenerator@@QAEHHHHHPBHHHPAVKItem@@@Z 1004a057 f   KItemGenerator.obj
 0001:0004930c       ?Gen_MagicAttrib@KItemGenerator@@AAEHHPBHHHPAUKMagicAttrib@@H@Z 1004a30c f   KItemGenerator.obj
 0001:000498f7       ?GMA_GetAvaliableMA@KItemGenerator@@AAEHH@Z 1004a8f7 f   KItemGenerator.obj
 0001:000499e0       ?GMA_GetLevelAndDropRate@KItemGenerator@@AAEHH@Z 1004a9e0 f   KItemGenerator.obj
 0001:00049b0e       ?GMA_ChooseMA@KItemGenerator@@AAEXHHHPAUKMagicAttrib@@@Z 1004ab0e f   KItemGenerator.obj
 0001:00049cc5       ?GetMARecord@KItemGenerator@@ABEPBUKMAGICATTRIB_TABFILE@@H@Z 1004acc5 f   KItemGenerator.obj
 0001:00049cef       ?GMA_GetCandidateMA@KItemGenerator@@AAEHHHH@Z 1004acef f   KItemGenerator.obj
 0001:00049db7       ?GetMedicineCommonAttrib@KItemGenerator@@QAEHHHPAVKItem@@@Z 1004adb7 f   KItemGenerator.obj
 0001:00049e92       ?GetGoldItemByRandom@KItemGenerator@@QAEHHPAVKItem@@@Z 1004ae92 f   KItemGenerator.obj
 0001:00049f92       ?GetGoldItemByIndex@KItemGenerator@@QAEHHPAVKItem@@@Z 1004af92 f   KItemGenerator.obj
 0001:0004a026       ?GetEquipmentCommonAttrib@KItemGenerator@@QAEHHHHHPAVKItem@@@Z 1004b026 f   KItemGenerator.obj
 0001:0004a205       ?Gen_ExistEquipment@KItemGenerator@@QAEHHHHHPBHHHPAVKItem@@@Z 1004b205 f   KItemGenerator.obj
 0001:0004a4ba       ?Gen_Quest@KItemGenerator@@QAEHHPAVKItem@@@Z 1004b4ba f   KItemGenerator.obj
 0001:0004a5dc       ?Gen_TownPortal@KItemGenerator@@QAEHPAVKItem@@@Z 1004b5dc f   KItemGenerator.obj
 0001:0004a700       ?SetSeries@KItem@@QAEXH@Z  1004b700 f i KItemGenerator.obj
 0001:0004a720       ?GetCount@KBPT_ClassMAIT@@QBEHXZ 1004b720 f i KItemGenerator.obj
 0001:0004a740       ??0KItemList@@QAE@XZ       1004b740 f   KItemList.obj
 0001:0004a7f4       ??1KItemList@@QAE@XZ       1004b7f4 f   KItemList.obj
 0001:0004a88a       ?GetWeaponType@KItemList@@QAEHXZ 1004b88a f   KItemList.obj
 0001:0004a8cb       ?GetWeaponDamage@KItemList@@QAEXPAH0@Z 1004b8cb f   KItemList.obj
 0001:0004aae6       ?Add@KItemList@@QAEHHHHH@Z 1004bae6 f   KItemList.obj
 0001:0004b0ed       ?Remove@KItemList@@QAEHH@Z 1004c0ed f   KItemList.obj
 0001:0004b6d6       ?FindFree@KItemList@@AAEHXZ 1004c6d6 f   KItemList.obj
 0001:0004b70e       ?FindSame@KItemList@@AAEHH@Z 1004c70e f   KItemList.obj
 0001:0004b789       ?Init@KItemList@@QAEHH@Z   1004c789 f   KItemList.obj
 0001:0004b8e5       ?CanEquip@KItemList@@QAEHHH@Z 1004c8e5 f   KItemList.obj
 0001:0004b9ce       ?CanEquip@KItemList@@QAEHPAVKItem@@H@Z 1004c9ce f   KItemList.obj
 0001:0004ba87       ?EnoughAttrib@KItemList@@QAEHPAX@Z 1004ca87 f   KItemList.obj
 0001:0004bc71       ?Equip@KItemList@@QAEHHH@Z 1004cc71 f   KItemList.obj
 0001:0004bfe0       ?InfectionNextEquip@KItemList@@AAEXHH@Z 1004cfe0 f   KItemList.obj
 0001:0004c167       ?UnEquip@KItemList@@QAEHHH@Z 1004d167 f   KItemList.obj
 0001:0004c36b       ?GetEquipPlace@KItemList@@AAEHH@Z 1004d36b f   KItemList.obj
 0001:0004c433       ?Fit@KItemList@@AAEHHH@Z   1004d433 f   KItemList.obj
 0001:0004c5ab       ?Fit@KItemList@@AAEHPAVKItem@@H@Z 1004d5ab f   KItemList.obj
 0001:0004c70b       ?GetEquipEnhance@KItemList@@AAEHH@Z 1004d70b f   KItemList.obj
 0001:0004c867       ?EatMecidine@KItemList@@QAEHH@Z 1004d867 f   KItemList.obj
 0001:0004c9e1       ?UseItem@KItemList@@QAEHH@Z 1004d9e1 f   KItemList.obj
 0001:0004ca85       ?SearchPosition@KItemList@@QAEHHHPAUItemPos@@@Z 1004da85 f   KItemList.obj
 0001:0004cb33       ?SearchID@KItemList@@QAEHH@Z 1004db33 f   KItemList.obj
 0001:0004cbd5       ?ExchangeMoney@KItemList@@QAEXHHH@Z 1004dbd5 f   KItemList.obj
 0001:0004cc9f       ?GetMoneyAmount@KItemList@@QAEHXZ 1004dc9f f   KItemList.obj
 0001:0004ccdd       ?GetEquipmentMoney@KItemList@@QAEHXZ 1004dcdd f   KItemList.obj
 0001:0004cd07       ?AddMoney@KItemList@@QAEHHH@Z 1004dd07 f   KItemList.obj
 0001:0004cd5b       ?CostMoney@KItemList@@QAEHH@Z 1004dd5b f   KItemList.obj
 0001:0004cdab       ?DecMoney@KItemList@@QAEHH@Z 1004ddab f   KItemList.obj
 0001:0004ce50       ?SetMoney@KItemList@@QAEXHHH@Z 1004de50 f   KItemList.obj
 0001:0004cee0       ?SetRoomMoney@KItemList@@QAEXHH@Z 1004dee0 f   KItemList.obj
 0001:0004cf23       ?ExchangeItem@KItemList@@QAEXPAUItemPos@@0@Z 1004df23 f   KItemList.obj
 0001:0004deb2       ?AutoMoveItem@KItemList@@QAEHUItemPos@@0@Z 1004eeb2 f   KItemList.obj
 0001:0004e15d       ?MenuSetMouseItem@KItemList@@QAEXXZ 1004f15d f   KItemList.obj
 0001:0004e213       ?GetFirstItem@KItemList@@QAEPAUPlayerItem@@XZ 1004f213 f   KItemList.obj
 0001:0004e267       ?GetNextItem@KItemList@@QAEPAUPlayerItem@@XZ 1004f267 f   KItemList.obj
 0001:0004e2d3       ?ClearRoom@KItemList@@QAEXH@Z 1004f2d3 f   KItemList.obj
 0001:0004e312       ?BackupTrade@KItemList@@QAEXXZ 1004f312 f   KItemList.obj
 0001:0004e3b9       ?RecoverTrade@KItemList@@QAEXXZ 1004f3b9 f   KItemList.obj
 0001:0004e491       ?StartTrade@KItemList@@QAEXXZ 1004f491 f   KItemList.obj
 0001:0004e4c9       ?RemoveAll@KItemList@@QAEXXZ 1004f4c9 f   KItemList.obj
 0001:0004e56a       ?GetWeaponParticular@KItemList@@QAEHXZ 1004f56a f   KItemList.obj
 0001:0004e5ab       ?FindSameDetailTypeInEquipment@KItemList@@AAEHHHPAH00@Z 1004f5ab f   KItemList.obj
 0001:0004e5eb       ?RemoveAllInOneRoom@KItemList@@QAEXH@Z 1004f5eb f   KItemList.obj
 0001:0004e6fa       ?LockOperation@KItemList@@QAEXXZ 1004f6fa f   KItemList.obj
 0001:0004e76e       ?UnlockOperation@KItemList@@QAEXXZ 1004f76e f   KItemList.obj
 0001:0004e7a5       ?GetActiveAttribNum@KItemList@@QAEHH@Z 1004f7a5 f   KItemList.obj
 0001:0004e805       ?GetSameDetailItemNum@KItemList@@QAEHH@Z 1004f805 f   KItemList.obj
 0001:0004e8a0       ?GetID@KItem@@QBEKXZ       1004f8a0 f i KItemList.obj
 0001:0004e8c0       ?GetHeight@KItem@@QBEHXZ   1004f8c0 f i KItemList.obj
 0001:0004e8e0       ?GetParticular@KItem@@QAEHXZ 1004f8e0 f i KItemList.obj
 0001:0004e900       ?GetLevel@KItem@@QAEHXZ    1004f900 f i KItemList.obj
 0001:0004e920       ?GetSeries@KItem@@QBEHXZ   1004f920 f i KItemList.obj
 0001:0004e940       ?g_IsAccrue@@YAHHH@Z       1004f940 f i KItemList.obj
 0001:0004e9cb       ??0KItemSet@@QAE@XZ        1004f9cb f   KItemSet.obj
 0001:0004ea62       ??1KItemSet@@QAE@XZ        1004fa62 f   KItemSet.obj
 0001:0004ead7       ?Init@KItemSet@@QAEXXZ     1004fad7 f   KItemSet.obj
 0001:0004f0f9       ?SearchID@KItemSet@@QAEHK@Z 100500f9 f   KItemSet.obj
 0001:0004f176       ?Add@KItemSet@@QAEHPAVKItem@@@Z 10050176 f   KItemSet.obj
 0001:0004f226       ?Add@KItemSet@@QAEHHHHHHHPAHHI@Z 10050226 f   KItemSet.obj
 0001:0004f360       ?FindFree@KItemSet@@AAEHXZ 10050360 f   KItemSet.obj
 0001:0004f395       ?Remove@KItemSet@@QAEXH@Z  10050395 f   KItemSet.obj
 0001:0004f3fb       ?SetID@KItemSet@@AAEXH@Z   100503fb f   KItemSet.obj
 0001:0004f440       ?GetAbradeRange@KItemSet@@QAEHHH@Z 10050440 f   KItemSet.obj
 0001:0004f490       ?SetID@KItem@@QAEXK@Z      10050490 f i KItemSet.obj
 0001:0004f4e6       ??0KObj@@QAE@XZ            100504e6 f   KObj.obj
 0001:0004f55c       ?Release@KObj@@QAEXXZ      1005055c f   KObj.obj
 0001:0004f75a       ?SetIndex@KObj@@QAEXH@Z    1005075a f   KObj.obj
 0001:0004f789       ?SetWorldID@KObj@@QAEXH@Z  10050789 f   KObj.obj
 0001:0004f7b6       ?SetLifeTime@KObj@@QAEXH@Z 100507b6 f   KObj.obj
 0001:0004f7db       ?SetState@KObj@@QAEXHH@Z   100507db f   KObj.obj
 0001:0004f893       ?BoxOpen@KObj@@AAEXXZ      10050893 f   KObj.obj
 0001:0004f8d6       ?BoxClose@KObj@@AAEXXZ     100508d6 f   KObj.obj
 0001:0004f917       ?DoorOpen@KObj@@AAEXXZ     10050917 f   KObj.obj
 0001:0004f94e       ?DoorClose@KObj@@AAEXXZ    1005094e f   KObj.obj
 0001:0004f985       ?SetDir@KObj@@QAEHH@Z      10050985 f   KObj.obj
 0001:0004fa25       ?SetScriptFile@KObj@@QAEXPAD@Z 10050a25 f   KObj.obj
 0001:0004fb0d       ?SetImageDir@KObj@@QAEXH@Z 10050b0d f   KObj.obj
 0001:0004fb5c       ?DrawInfo@KObj@@QAEXXZ     10050b5c f   KObj.obj
 0001:0004fc1b       ?Draw@KObj@@QAEXXZ         10050c1b f   KObj.obj
 0001:0004feee       ?Activate@KObj@@QAEXXZ     10050eee f   KObj.obj
 0001:00050247       ?PlayLoopSound@KObj@@AAEXXZ 10051247 f   KObj.obj
 0001:0005035a       ?PlayRandSound@KObj@@AAEXXZ 1005135a f   KObj.obj
 0001:00050447       ?GetSoundPan@KObj@@AAEHXZ  10051447 f   KObj.obj
 0001:00050545       ?GetSoundVolume@KObj@@AAEHXZ 10051545 f   KObj.obj
 0001:00050680       ?PlaySoundA@KObj@@AAEXXZ   10051680 f   KObj.obj
 0001:0005074d       ?ExecScript@KObj@@QAEXH@Z  1005174d f   KObj.obj
 0001:00050997       ?CastSkill@KObj@@QAEXH@Z   10051997 f   KObj.obj
 0001:000509ab       ?CastSkill@KObj@@QAEXHH@Z  100519ab f   KObj.obj
 0001:000509bf       ?Remove@KObj@@QAEXH@Z      100519bf f   KObj.obj
 0001:00050a55       ?GetKind@KObj@@QAEHXZ      10051a55 f   KObj.obj
 0001:00050a6d       ?PolygonChangeToBar@KObj@@QAEXVKPolygon@@HHHHPAE@Z 10051a6d f   KObj.obj
 0001:00050c94       ?GetMpsPos@KObj@@QAEXPAH0@Z 10051c94 f   KObj.obj
 0001:00050cf4       ?DrawBorder@KObj@@QAEXXZ   10051cf4 f   KObj.obj
 0001:00050de0       ??0SOBJ_LIGHT_DATA@@QAE@XZ 10051de0 f i KObj.obj
 0001:00050e10       ?Release@SOBJ_LIGHT_DATA@@QAEXXZ 10051e10 f i KObj.obj
 0001:00050e60       ??0OBJ_SKILL_DATA@@QAE@XZ  10051e60 f i KObj.obj
 0001:00050e90       ?Release@OBJ_SKILL_DATA@@QAEXXZ 10051e90 f i KObj.obj
 0001:00050f00       ?GetPlayerID@KPlayer@@QAEKXZ 10051f00 f i KObj.obj
 0001:00050f7b       ??0KObjSet@@QAE@XZ         10051f7b f   KObjSet.obj
 0001:00051032       ??1KObjSet@@QAE@XZ         10052032 f   KObjSet.obj
 0001:000510e6       ?Init@KObjSet@@QAEHXZ      100520e6 f   KObjSet.obj
 0001:0005145c       ?ClientAdd@KObjSet@@QAEHHHHHHHHUKObjItemInfo@@@Z 1005245c f   KObjSet.obj
 0001:000516de       ?ClientLoadRegionObj@KObjSet@@QAEHPADHHHH@Z 100526de f   KObjSet.obj
 0001:000519d8       ?ClientLoadRegionObj@KObjSet@@QAEHPAVKPakFile@@K@Z 100529d8 f   KObjSet.obj
 0001:00051baa       ?AddData@KObjSet@@QAEHHHHHHHH@Z 10052baa f   KObjSet.obj
 0001:0005249d       ?FindFree@KObjSet@@AAEHXZ  1005349d f   KObjSet.obj
 0001:000524d5       ?CheckClientKind@KObjSet@@AAEHH@Z 100534d5 f   KObjSet.obj
 0001:00052531       ?FindID@KObjSet@@QAEHH@Z   10053531 f   KObjSet.obj
 0001:000525d8       ?FindName@KObjSet@@QAEHPAD@Z 100535d8 f   KObjSet.obj
 0001:00052692       ?GetID@KObjSet@@QAEHXZ     10053692 f   KObjSet.obj
 0001:000526bc       ?Remove@KObjSet@@QAEXH@Z   100536bc f   KObjSet.obj
 0001:00052728       ?RemoveIfClientOnly@KObjSet@@QAEXH@Z 10053728 f   KObjSet.obj
 0001:000527b8       ?GetDataIDKind@KObjSet@@AAEHH@Z 100537b8 f   KObjSet.obj
 0001:00052879       ?SearchObjAt@KObjSet@@QAEHHHH@Z 10053879 f   KObjSet.obj
 0001:00052a8a       ?GetNameColor@KObjSet@@QAEKH@Z 10053a8a f   KObjSet.obj
 0001:00052abc       ?SetShowNameFlag@KObjSet@@QAEXH@Z 10053abc f   KObjSet.obj
 0001:00052ad9       ?CheckShowName@KObjSet@@QAEHXZ 10053ad9 f   KObjSet.obj
 0001:00052b27       ??0KViewItem@@QAE@XZ       10053b27 f   KViewItem.obj
 0001:00052b4e       ?Init@KViewItem@@QAEXXZ    10053b4e f   KViewItem.obj
 0001:00052b9a       ?ApplyViewEquip@KViewItem@@QAEXK@Z 10053b9a f   KViewItem.obj
 0001:00052c02       ?DeleteAll@KViewItem@@QAEXXZ 10053c02 f   KViewItem.obj
 0001:00052c94       ?GetData@KViewItem@@QAEXPAE@Z 10053c94 f   KViewItem.obj
 0001:00053290       ?g_InitCore@@YAXXZ         10054290 f   KCore.obj
 0001:000537c0       ?InitTaskSetting@@YAHXZ    100547c0 f   KCore.obj
 0001:00053845       ?InitNpcSetting@@YAHXZ     10054845 f   KCore.obj
 0001:00053a69       ?InitMissleSetting@@YAHXZ  10054a69 f   KCore.obj
 0001:00053b4d       ?InitSkillSetting@@YAHXZ   10054b4d f   KCore.obj
 0001:00053be2       ?g_ReleaseCore@@YAXXZ      10054be2 f   KCore.obj
 0001:00053d55       ?g_SetClient@@YAXPAX@Z     10054d55 f   KCore.obj
 0001:00053d62       ?InitAdjustColorTab@@YAIXZ 10054d62 f   KCore.obj
 0001:00054098       ??0KSubWorld@@QAE@XZ       10055098 f   KSubWorld.obj
 0001:000541be       ??1KSubWorld@@QAE@XZ       100551be f   KSubWorld.obj
 0001:00054271       ?FindRegion@KSubWorld@@QAEHH@Z 10055271 f   KSubWorld.obj
 0001:000542d0       ?FindFreeRegion@KSubWorld@@QAEHHH@Z 100552d0 f   KSubWorld.obj
 0001:000543f4       ?Activate@KSubWorld@@QAEXXZ 100553f4 f   KSubWorld.obj
 0001:000544bb       ?GetDistance@KSubWorld@@QAEHHHHH@Z 100554bb f   KSubWorld.obj
 0001:0005451b       ?Map2Mps@KSubWorld@@QAEXHHHHHPAH0@Z 1005551b f   KSubWorld.obj
 0001:000545f2       ?Map2Mps@KSubWorld@@SAXHHHHHHPAH0@Z 100555f2 f   KSubWorld.obj
 0001:00054629       ?Mps2Map@KSubWorld@@QAEXHHPAH0000@Z 10055629 f   KSubWorld.obj
 0001:000547dc       ?TestBarrier@KSubWorld@@QAEEHH@Z 100557dc f   KSubWorld.obj
 0001:000549a2       ?TestBarrier@KSubWorld@@QAEEHHHHHHH@Z 100559a2 f   KSubWorld.obj
 0001:00054c62       ?TestBarrierMin@KSubWorld@@QAEEHHHHHHH@Z 10055c62 f   KSubWorld.obj
 0001:00054f3b       ?GetTrap@KSubWorld@@QAEKHH@Z 10055f3b f   KSubWorld.obj
 0001:00054fb7       ?GetBarrier@KSubWorld@@QAEEHH@Z 10055fb7 f   KSubWorld.obj
 0001:00054fe7       ?LoadMap@KSubWorld@@QAEHHH@Z 10055fe7 f   KSubWorld.obj
 0001:000563cc       ?LoadTrap@KSubWorld@@AAEXXZ 100573cc f   KSubWorld.obj
 0001:000563de       ?MessageLoop@KSubWorld@@QAEXXZ 100573de f   KSubWorld.obj
 0001:00056473       ?ProcessMsg@KSubWorld@@AAEXPAVKWorldMsgNode@@@Z 10057473 f   KSubWorld.obj
 0001:000566d3       ?NpcChangeRegion@KSubWorld@@QAEXHHH@Z 100576d3 f   KSubWorld.obj
 0001:000568d4       ?ObjChangeRegion@KSubWorld@@QAEXHHH@Z 100578d4 f   KSubWorld.obj
 0001:0005699b       ?MissleChangeRegion@KSubWorld@@QAEXHHH@Z 1005799b f   KSubWorld.obj
 0001:00056a4e       ?GetMps@KSubWorld@@QAEXPAH0HHH@Z 10057a4e f   KSubWorld.obj
 0001:00056ab2       ?LoadCell@KSubWorld@@AAEXXZ 10057ab2 f   KSubWorld.obj
 0001:00056ac4       ?Paint@KSubWorld@@QAEXXZ   10057ac4 f   KSubWorld.obj
 0001:00056b8f       ?Mps2Screen@KSubWorld@@QAEXPAH0@Z 10057b8f f   KSubWorld.obj
 0001:00056ba3       ?Screen2Mps@KSubWorld@@QAEXPAH0@Z 10057ba3 f   KSubWorld.obj
 0001:00056bb7       ?Close@KSubWorld@@QAEXXZ   10057bb7 f   KSubWorld.obj
 0001:00056c40       ?AddPlayer@KSubWorld@@QAEXHH@Z 10057c40 f   KSubWorld.obj
 0001:00056d86       ?RemovePlayer@KSubWorld@@QAEXHH@Z 10057d86 f   KSubWorld.obj
 0001:00056f6b       ?GetFreeObjPos@KSubWorld@@QAEXAAUtagPOINT@@@Z 10057f6b f   KSubWorld.obj
 0001:00057124       ?CanPutObj@KSubWorld@@QAEHUtagPOINT@@@Z 10058124 f   KSubWorld.obj
 0001:000571e0       ??0KWorldMsg@@QAE@XZ       100581e0 f i KSubWorld.obj
 0001:00057210       ??1KWorldMsg@@QAE@XZ       10058210 f i KSubWorld.obj
 0001:00057240       ??_EKRegion@@QAEPAXI@Z     10058240 f i KSubWorld.obj
 0001:000572d0       ?IsActive@KRegion@@QAEHXZ  100582d0 f i KSubWorld.obj
 0001:0005734b       ??0KSubWorldSet@@QAE@XZ    1005834b f   KSubWorldSet.obj
 0001:000573df       ?SearchWorld@KSubWorldSet@@QAEHK@Z 100583df f   KSubWorldSet.obj
 0001:00057432       ?Load@KSubWorldSet@@QAEHPAD@Z 10058432 f   KSubWorldSet.obj
 0001:000575b7       ?MainLoop@KSubWorldSet@@QAEXXZ 100585b7 f   KSubWorldSet.obj
 0001:00057655       ?MessageLoop@KSubWorldSet@@QAEXXZ 10058655 f   KSubWorldSet.obj
 0001:000576a8       ?SendMessageA@KSubWorldSet@@QAEHHKHHH@Z 100586a8 f   KSubWorldSet.obj
 0001:000577a7       ?Close@KSubWorldSet@@QAEXXZ 100587a7 f   KSubWorldSet.obj
 0001:0005782d       ?Paint@KSubWorldSet@@QAEXXZ 1005882d f   KSubWorldSet.obj
 0001:00057860       ?Send@KWorldMsg@@QAEHPAVKWorldMsgNode@@@Z 10058860 f i KSubWorldSet.obj
 0001:000578a0       ??0KRegion@@QAE@XZ         100588a0 f   KRegion.obj
 0001:000579ae       ??1KRegion@@QAE@XZ         100589ae f   KRegion.obj
 0001:00057aa7       ?Init@KRegion@@QAEHHH@Z    10058aa7 f   KRegion.obj
 0001:00057bf6       ?Load@KRegion@@QAEHHH@Z    10058bf6 f   KRegion.obj
 0001:00057dea       ?LoadObject@KRegion@@QAEHHHHPAD@Z 10058dea f   KRegion.obj
 0001:0005834d       ?LoadClientNpc@KRegion@@QAEHPAVKPakFile@@K@Z 1005934d f   KRegion.obj
 0001:0005857f       ?LoadClientObj@KRegion@@QAEHPAVKPakFile@@K@Z 1005957f f   KRegion.obj
 0001:000585af       ?LoadLittleMapData@KRegion@@SAXHHPADPAE@Z 100595af f   KRegion.obj
 0001:0005891d       ?Activate@KRegion@@QAEXXZ  1005991d f   KRegion.obj
 0001:00058aba       ?AddNpc@KRegion@@QAEXH@Z   10059aba f   KRegion.obj
 0001:00058b75       ?RemoveNpc@KRegion@@QAEXH@Z 10059b75 f   KRegion.obj
 0001:00058c3b       ?AddMissle@KRegion@@QAEXH@Z 10059c3b f   KRegion.obj
 0001:00058cf6       ?RemoveMissle@KRegion@@QAEXH@Z 10059cf6 f   KRegion.obj
 0001:00058d5d       ?AddObj@KRegion@@QAEXH@Z   10059d5d f   KRegion.obj
 0001:00058e57       ?RemoveObj@KRegion@@QAEXH@Z 10059e57 f   KRegion.obj
 0001:00058f44       ?GetTrap@KRegion@@QAEKHH@Z 10059f44 f   KRegion.obj
 0001:00058f5a       ?GetBarrier@KRegion@@QAEEHHHH@Z 10059f5a f   KRegion.obj
 0001:00058fa2       ?GetBarrierMin@KRegion@@QAEEHHHHH@Z 10059fa2 f   KRegion.obj
 0001:00059046       ?GetRef@KRegion@@QAEHHHW4MOVE_OBJ_KIND@@@Z 1005a046 f   KRegion.obj
 0001:00059118       ?AddRef@KRegion@@QAEHHHW4MOVE_OBJ_KIND@@@Z 1005a118 f   KRegion.obj
 0001:00059210       ?DecRef@KRegion@@QAEHHHW4MOVE_OBJ_KIND@@@Z 1005a210 f   KRegion.obj
 0001:00059305       ?AddPlayer@KRegion@@QAEHH@Z 1005a305 f   KRegion.obj
 0001:000593c6       ?RemovePlayer@KRegion@@QAEHH@Z 1005a3c6 f   KRegion.obj
 0001:00059433       ?SearchNpc@KRegion@@QAEHK@Z 1005a433 f   KRegion.obj
 0001:000594a3       ?FindObject@KRegion@@QAEHHH@Z 1005a4a3 f   KRegion.obj
 0001:0005952a       ?FindObject@KRegion@@QAEHH@Z 1005a52a f   KRegion.obj
 0001:0005959a       ?FindEquip@KRegion@@QAEHHH@Z 1005a59a f   KRegion.obj
 0001:00059636       ?Paint@KRegion@@QAEXXZ     1005a636 f   KRegion.obj
 0001:000596f3       ?GetObjNode@KRegion@@QAEPAXH@Z 1005a6f3 f   KRegion.obj
 0001:00059752       ?Close@KRegion@@QAEXXZ     1005a752 f   KRegion.obj
 0001:00059a20       ?AddRef@KIndexNode@@QAEXXZ 1005aa20 f i KRegion.obj
 0001:00059a50       ?Release@KIndexNode@@QAEXXZ 1005aa50 f i KRegion.obj
 0001:00059ac0       ?Get@KWorldMsg@@QAEHPAVKWorldMsgNode@@@Z 1005aac0 f   KWorldMsg.obj
 0001:00059b7c       ?Peek@KWorldMsg@@QAEHPAVKWorldMsgNode@@K@Z 1005ab7c f   KWorldMsg.obj
 0001:00059c0a       ?Clear@KWorldMsg@@QAEXXZ   1005ac0a f   KWorldMsg.obj
 0001:00059cb0       ?g_InitMath@@YAHXZ         1005acb0 f   KMath.obj
 0001:00059cba       ?g_UnInitMath@@YAHXZ       1005acba f   KMath.obj
 0001:00059cc4       ?g_InitSeries@@YAXXZ       1005acc4 f   KMath.obj
 0001:00059d30       ?g_InitProtocol@@YAXXZ     1005ad30 f   KProtocol.obj
 0001:00059d5d       ?SendClientCmdRun@@YAXHH@Z 1005ad5d f   KProtocol.obj
 0001:00059dc6       ?SendClientCmdWalk@@YAXHH@Z 1005adc6 f   KProtocol.obj
 0001:00059e2f       ?SendClientCmdSkill@@YAXHHH@Z 1005ae2f f   KProtocol.obj
 0001:00059ea2       ?SendClientCmdRequestNpc@@YAXH@Z 1005aea2 f   KProtocol.obj
 0001:00059f09       ?SendClientCmdSell@@YAXH@Z 1005af09 f   KProtocol.obj
 0001:00059f8a       ?SendClientCmdBuy@@YAXHHHH@Z 1005af8a f   KProtocol.obj
 0001:0005a01d       ?SendClientCmdSit@@YAXH@Z  1005b01d f   KProtocol.obj
 0001:0005a083       ?SendClientCmdJump@@YAXHH@Z 1005b083 f   KProtocol.obj
 0001:0005a0ec       ?SendObjMouseClick@@YAXHK@Z 1005b0ec f   KProtocol.obj
 0001:0005a155       ?SendClientCmdStoreMoney@@YAXHH@Z 1005b155 f   KProtocol.obj
 0001:0005a1c2       ?SendClientCmdRevive@@YAXXZ 1005b1c2 f   KProtocol.obj
 0001:0005a21d       ?SendClientCmdMoveItem@@YAXPAX0@Z 1005b21d f   KProtocol.obj
 0001:0005a2eb       ?SendClientCmdQueryLadder@@YAXK@Z 1005b2eb f   KProtocol.obj
 0001:0005a360       ?SendClientCmdRepair@@YAXK@Z 1005b360 f   KProtocol.obj
 0001:0005a42b       ??0KProtocolProcess@@QAE@XZ 1005b42b f   KProtocolProcess.obj
 0001:0005a9bf       ??1KProtocolProcess@@QAE@XZ 1005b9bf f   KProtocolProcess.obj
 0001:0005a9d1       ?ProcessNetMsg@KProtocolProcess@@QAEXPAE@Z 1005b9d1 f   KProtocolProcess.obj
 0001:0005aa86       ?NpcSleepSync@KProtocolProcess@@AAEXPAE@Z 1005ba86 f   KProtocolProcess.obj
 0001:0005ab08       ?s2cPing@KProtocolProcess@@AAEXPAE@Z 1005bb08 f   KProtocolProcess.obj
 0001:0005ab91       ?ServerReplyClientPing@KProtocolProcess@@AAEXPAE@Z 1005bb91 f   KProtocolProcess.obj
 0001:0005abfb       ?s2cPlayerExp@KProtocolProcess@@AAEXPAE@Z 1005bbfb f   KProtocolProcess.obj
 0001:0005ac39       ?s2cChatScreenSingleError@KProtocolProcess@@AAEXPAE@Z 1005bc39 f   KProtocolProcess.obj
 0001:0005acdc       ?NetCommandChgCamp@KProtocolProcess@@AAEXPAE@Z 1005bcdc f   KProtocolProcess.obj
 0001:0005ad56       ?NetCommandChgCurCamp@KProtocolProcess@@AAEXPAE@Z 1005bd56 f   KProtocolProcess.obj
 0001:0005add0       ?NetCommandDeath@KProtocolProcess@@AAEXPAE@Z 1005bdd0 f   KProtocolProcess.obj
 0001:0005ae7b       ?NetCommandJump@KProtocolProcess@@AAEXPAE@Z 1005be7b f   KProtocolProcess.obj
 0001:0005af12       ?NetCommandHurt@KProtocolProcess@@AAEXPAE@Z 1005bf12 f   KProtocolProcess.obj
 0001:0005afa0       ?NetCommandRemoveNpc@KProtocolProcess@@AAEXPAE@Z 1005bfa0 f   KProtocolProcess.obj
 0001:0005b088       ?NetCommandRun@KProtocolProcess@@AAEXPAE@Z 1005c088 f   KProtocolProcess.obj
 0001:0005b128       ?NetCommandSit@KProtocolProcess@@AAEXPAE@Z 1005c128 f   KProtocolProcess.obj
 0001:0005b1b3       ?OpenSaleBox@KProtocolProcess@@AAEXPAE@Z 1005c1b3 f   KProtocolProcess.obj
 0001:0005b1f1       ?OpenStoreBox@KProtocolProcess@@AAEXPAE@Z 1005c1f1 f   KProtocolProcess.obj
 0001:0005b21d       ?PlayerRevive@KProtocolProcess@@AAEXPAE@Z 1005c21d f   KProtocolProcess.obj
 0001:0005b2c4       ?RequestNpcFail@KProtocolProcess@@AAEXPAE@Z 1005c2c4 f   KProtocolProcess.obj
 0001:0005b317       ?NetCommandSkill@KProtocolProcess@@AAEXPAE@Z 1005c317 f   KProtocolProcess.obj
 0001:0005b441       ?NetCommandWalk@KProtocolProcess@@AAEXPAE@Z 1005c441 f   KProtocolProcess.obj
 0001:0005b4e1       ?s2cApplyCreateTeamFalse@KProtocolProcess@@AAEXPAE@Z 1005c4e1 f   KProtocolProcess.obj
 0001:0005b5b0       ?s2cApplyTeamInfoFalse@KProtocolProcess@@AAEXPAE@Z 1005c5b0 f   KProtocolProcess.obj
 0001:0005b5c4       ?s2cChatAddFriend@KProtocolProcess@@AAEXPAE@Z 1005c5c4 f   KProtocolProcess.obj
 0001:0005b6ad       ?s2cChatAddFriendFail@KProtocolProcess@@AAEXPAE@Z 1005c6ad f   KProtocolProcess.obj
 0001:0005b76d       ?s2cChatAddOneFriend@KProtocolProcess@@AAEXPAE@Z 1005c76d f   KProtocolProcess.obj
 0001:0005b813       ?s2cChatBeRefusedAddFriend@KProtocolProcess@@AAEXPAE@Z 1005c813 f   KProtocolProcess.obj
 0001:0005b8c8       ?s2cChatFriendOnline@KProtocolProcess@@AAEXPAE@Z 1005c8c8 f   KProtocolProcess.obj
 0001:0005b90d       ?s2cChatGetApplyAddFriend@KProtocolProcess@@AAEXPAE@Z 1005c90d f   KProtocolProcess.obj
 0001:0005bac3       ?s2cChatLoginFriendName@KProtocolProcess@@AAEXPAE@Z 1005cac3 f   KProtocolProcess.obj
 0001:0005bb76       ?s2cChatLoginFriendNoName@KProtocolProcess@@AAEXPAE@Z 1005cb76 f   KProtocolProcess.obj
 0001:0005bcae       ?s2cCreateTeam@KProtocolProcess@@AAEXPAE@Z 1005ccae f   KProtocolProcess.obj
 0001:0005bdf8       ?s2cFactionSkillOpen@KProtocolProcess@@AAEXPAE@Z 1005cdf8 f   KProtocolProcess.obj
 0001:0005be48       ?s2cGetChat@KProtocolProcess@@AAEXPAE@Z 1005ce48 f   KProtocolProcess.obj
 0001:0005be83       ?s2cGetCurAttribute@KProtocolProcess@@AAEXPAE@Z 1005ce83 f   KProtocolProcess.obj
 0001:0005beaf       ?s2cGetLeadExp@KProtocolProcess@@AAEXPAE@Z 1005ceaf f   KProtocolProcess.obj
 0001:0005bf75       ?s2cGetSkillLevel@KProtocolProcess@@AAEXPAE@Z 1005cf75 f   KProtocolProcess.obj
 0001:0005c0e4       ?s2cGetTeammateLevel@KProtocolProcess@@AAEXPAE@Z 1005d0e4 f   KProtocolProcess.obj
 0001:0005c18b       ?s2cLeaveFaction@KProtocolProcess@@AAEXPAE@Z 1005d18b f   KProtocolProcess.obj
 0001:0005c1da       ?s2cLeaveTeam@KProtocolProcess@@AAEXPAE@Z 1005d1da f   KProtocolProcess.obj
 0001:0005c2ad       ?s2cLevelUp@KProtocolProcess@@AAEXPAE@Z 1005d2ad f   KProtocolProcess.obj
 0001:0005c2d9       ?s2cMoveItem@KProtocolProcess@@AAEXPAE@Z 1005d2d9 f   KProtocolProcess.obj
 0001:0005c369       ?s2cRemoveItem@KProtocolProcess@@AAEXPAE@Z 1005d369 f   KProtocolProcess.obj
 0001:0005c3cf       ?s2cSetFactionData@KProtocolProcess@@AAEXPAE@Z 1005d3cf f   KProtocolProcess.obj
 0001:0005c44f       ?s2cSetTeamState@KProtocolProcess@@AAEXPAE@Z 1005d44f f   KProtocolProcess.obj
 0001:0005c558       ?s2cApplyAddTeam@KProtocolProcess@@AAEXPAE@Z 1005d558 f   KProtocolProcess.obj
 0001:0005c584       ?s2cShowTeamInfo@KProtocolProcess@@AAEXPAE@Z 1005d584 f   KProtocolProcess.obj
 0001:0005c598       ?s2cSyncItem@KProtocolProcess@@AAEXPAE@Z 1005d598 f   KProtocolProcess.obj
 0001:0005c6be       ?s2cSyncMoney@KProtocolProcess@@AAEXPAE@Z 1005d6be f   KProtocolProcess.obj
 0001:0005c6ea       ?s2cSyncRoleList@KProtocolProcess@@AAEXPAE@Z 1005d6ea f   KProtocolProcess.obj
 0001:0005c70d       ?s2cTeamAddMember@KProtocolProcess@@AAEXPAE@Z 1005d70d f   KProtocolProcess.obj
 0001:0005c81c       ?s2cTeamChangeCaptain@KProtocolProcess@@AAEXPAE@Z 1005d81c f   KProtocolProcess.obj
 0001:0005ca49       ?s2cUpdataSelfTeamInfo@KProtocolProcess@@AAEXPAE@Z 1005da49 f   KProtocolProcess.obj
 0001:0005cc73       ?SyncCurNormalData@KProtocolProcess@@AAEXPAE@Z 1005dc73 f   KProtocolProcess.obj
 0001:0005ce11       ?SyncCurPlayer@KProtocolProcess@@AAEXPAE@Z 1005de11 f   KProtocolProcess.obj
 0001:0005ce3d       ?SyncNpc@KProtocolProcess@@AAEXPAE@Z 1005de3d f   KProtocolProcess.obj
 0001:0005d2eb       ?SyncNpcMin@KProtocolProcess@@AAEXPAE@Z 1005e2eb f   KProtocolProcess.obj
 0001:0005d797       ?SyncNpcMinPlayer@KProtocolProcess@@AAEXPAE@Z 1005e797 f   KProtocolProcess.obj
 0001:0005dc60       ?SyncObjectAdd@KProtocolProcess@@AAEXPAE@Z 1005ec60 f   KProtocolProcess.obj
 0001:0005dd91       ?SyncObjectDir@KProtocolProcess@@AAEXPAE@Z 1005ed91 f   KProtocolProcess.obj
 0001:0005de41       ?SyncObjectRemove@KProtocolProcess@@AAEXPAE@Z 1005ee41 f   KProtocolProcess.obj
 0001:0005deac       ?SyncObjectState@KProtocolProcess@@AAEXPAE@Z 1005eeac f   KProtocolProcess.obj
 0001:0005dfc5       ?SyncObjectTrap@KProtocolProcess@@AAEXPAE@Z 1005efc5 f   KProtocolProcess.obj
 0001:0005e0a9       ?SyncPlayer@KProtocolProcess@@AAEXPAE@Z 1005f0a9 f   KProtocolProcess.obj
 0001:0005e2b5       ?SyncPlayerMin@KProtocolProcess@@AAEXPAE@Z 1005f2b5 f   KProtocolProcess.obj
 0001:0005e4f8       ?SyncScriptAction@KProtocolProcess@@AAEXPAE@Z 1005f4f8 f   KProtocolProcess.obj
 0001:0005e524       ?SyncWorld@KProtocolProcess@@AAEXPAE@Z 1005f524 f   KProtocolProcess.obj
 0001:0005e5cb       ?s2cChatDeleteFriend@KProtocolProcess@@AAEXPAE@Z 1005f5cb f   KProtocolProcess.obj
 0001:0005e70a       ?s2cChatFriendOffLine@KProtocolProcess@@AAEXPAE@Z 1005f70a f   KProtocolProcess.obj
 0001:0005e748       ?s2cSyncAllSkill@KProtocolProcess@@AAEXPAE@Z 1005f748 f   KProtocolProcess.obj
 0001:0005e825       ?SyncEnd@KProtocolProcess@@AAEXPAE@Z 1005f825 f   KProtocolProcess.obj
 0001:0005e909       ?s2cTradeChangeState@KProtocolProcess@@AAEXPAE@Z 1005f909 f   KProtocolProcess.obj
 0001:0005e935       ?s2cNpcSetMenuState@KProtocolProcess@@AAEXPAE@Z 1005f935 f   KProtocolProcess.obj
 0001:0005eacc       ?s2cTradeMoneySync@KProtocolProcess@@AAEXPAE@Z 1005facc f   KProtocolProcess.obj
 0001:0005eaf8       ?s2cTradeDecision@KProtocolProcess@@AAEXPAE@Z 1005faf8 f   KProtocolProcess.obj
 0001:0005eb2e       ?s2cUpdateNpcState@KProtocolProcess@@AAEXPAE@Z 1005fb2e f   KProtocolProcess.obj
 0001:0005ebc1       ?s2cTeamInviteAdd@KProtocolProcess@@AAEXPAE@Z 1005fbc1 f   KProtocolProcess.obj
 0001:0005ebed       ?s2cTradePressOkSync@KProtocolProcess@@AAEXPAE@Z 1005fbed f   KProtocolProcess.obj
 0001:0005ec48       ?s2cDirectlyCastSkill@KProtocolProcess@@AAEXPAE@Z 1005fc48 f   KProtocolProcess.obj
 0001:0005edbf       ?s2cShowMsg@KProtocolProcess@@AAEXPAE@Z 1005fdbf f   KProtocolProcess.obj
 0001:0005fe3a       ?SyncStateEffect@KProtocolProcess@@AAEXPAE@Z 10060e3a f   KProtocolProcess.obj
 0001:0005fec9       ?s2cTradeApplyStart@KProtocolProcess@@AAEXPAE@Z 10060ec9 f   KProtocolProcess.obj
 0001:0005fef5       ?s2cItemAutoMove@KProtocolProcess@@AAEXPAE@Z 10060ef5 f   KProtocolProcess.obj
 0001:0005ffa9       ?FinishedItemExchange@KProtocolProcess@@AAEXPAE@Z 10060fa9 f   KProtocolProcess.obj
 0001:0005ffd1       ?s2cExtend@KProtocolProcess@@AAEXPAE@Z 10060fd1 f   KProtocolProcess.obj
 0001:00060058       ?s2cExtendChat@KProtocolProcess@@AAEXPAE@Z 10061058 f   KProtocolProcess.obj
 0001:00060243       ?s2cExtendFriend@KProtocolProcess@@AAEXPAE@Z 10061243 f   KProtocolProcess.obj
 0001:000608f9       ?s2cExtendTong@KProtocolProcess@@AAEXPAE@Z 100618f9 f   KProtocolProcess.obj
 0001:000614fd       ?s2cChangeWeather@KProtocolProcess@@AAEXPAE@Z 100624fd f   KProtocolProcess.obj
 0001:0006152e       ?s2cPKSyncNormalFlag@KProtocolProcess@@AAEXPAE@Z 1006252e f   KProtocolProcess.obj
 0001:00061570       ?s2cPKSyncEnmityState@KProtocolProcess@@AAEXPAE@Z 10062570 f   KProtocolProcess.obj
 0001:000615f0       ?s2cPKSyncExerciseState@KProtocolProcess@@AAEXPAE@Z 100625f0 f   KProtocolProcess.obj
 0001:00061670       ?s2cPKValueSync@KProtocolProcess@@AAEXPAE@Z 10062670 f   KProtocolProcess.obj
 0001:000616ae       ?s2cViewEquip@KProtocolProcess@@AAEXPAE@Z 100626ae f   KProtocolProcess.obj
 0001:000616da       ?s2cTongCreate@KProtocolProcess@@AAEXPAE@Z 100626da f   KProtocolProcess.obj
 0001:00061706       ?s2cNpcGoldChange@KProtocolProcess@@AAEXPAE@Z 10062706 f   KProtocolProcess.obj
 0001:00061784       ?ItemChangeDurability@KProtocolProcess@@AAEXPAE@Z 10062784 f   KProtocolProcess.obj
 0001:000618b6       ?LadderList@KProtocolProcess@@AAEXPAE@Z 100628b6 f   KProtocolProcess.obj
 0001:000619a0       ?LadderResult@KProtocolProcess@@AAEXPAE@Z 100629a0 f   KProtocolProcess.obj
 0001:00061b00       ?SetSleepMode@KNpc@@QAEXH@Z 10062b00 f i KProtocolProcess.obj
 0001:00061b40       ??0CChatApplyListNode@@QAE@XZ 10062b40 f i KProtocolProcess.obj
 0001:00061ba0       ??_GCChatApplyListNode@@UAEPAXI@Z 10062ba0 f i KProtocolProcess.obj
 0001:00061ba0       ??_ECChatApplyListNode@@UAEPAXI@Z 10062ba0 f i KProtocolProcess.obj
 0001:00061be0       ??1CChatApplyListNode@@UAE@XZ 10062be0 f i KProtocolProcess.obj
 0001:00061c10       ?GetName@KItem@@QBEPADXZ   10062c10 f i KProtocolProcess.obj
 0001:00061c30       ?GetFigure@KPlayerTong@@QAEHXZ 10062c30 f i KProtocolProcess.obj
 0001:00061cc3       ?LuaGetBit@@YAHPAUlua_State@@@Z 10062cc3 f   ScriptFuns.obj
 0001:00061d86       ?LuaSetBit@@YAHPAUlua_State@@@Z 10062d86 f   ScriptFuns.obj
 0001:00061e68       ?LuaGetByte@@YAHPAUlua_State@@@Z 10062e68 f   ScriptFuns.obj
 0001:00061f35       ?LuaSetByte@@YAHPAUlua_State@@@Z 10062f35 f   ScriptFuns.obj
 0001:00062016       ?GetSubWorldIndex@@YAHPAUlua_State@@@Z 10063016 f   ScriptFuns.obj
 0001:0006216a       ?LuaSubWorldIDToIndex@@YAHPAUlua_State@@@Z 1006316a f   ScriptFuns.obj
 0001:00062212       ?LuaSelectUI@@YAHPAUlua_State@@@Z 10063212 f   ScriptFuns.obj
 0001:0006281a       ?LuaSendMessageInfo@@YAHPAUlua_State@@@Z 1006381a f   ScriptFuns.obj
 0001:00062979       ?LuaAddGlobalNews@@YAHPAUlua_State@@@Z 10063979 f   ScriptFuns.obj
 0001:00062ad5       ?LuaAddLocalNews@@YAHPAUlua_State@@@Z 10063ad5 f   ScriptFuns.obj
 0001:00062c31       ?LuaAddGlobalCountNews@@YAHPAUlua_State@@@Z 10063c31 f   ScriptFuns.obj
 0001:00062de2       ?LuaAddLocalCountNews@@YAHPAUlua_State@@@Z 10063de2 f   ScriptFuns.obj
 0001:00062f93       ?LuaAddGlobalTimeNews@@YAHPAUlua_State@@@Z 10063f93 f   ScriptFuns.obj
 0001:00063212       ?LuaAddLocalTimeNews@@YAHPAUlua_State@@@Z 10064212 f   ScriptFuns.obj
 0001:00063491       ?LuaAddNote@@YAHPAUlua_State@@@Z 10064491 f   ScriptFuns.obj
 0001:000636de       ?LuaTalkUI@@YAHPAUlua_State@@@Z 100646de f   ScriptFuns.obj
 0001:00063b21       ?LuaIncludeFile@@YAHPAUlua_State@@@Z 10064b21 f   ScriptFuns.obj
 0001:00063d6e       ?LuaGetTaskValue@@YAHPAUlua_State@@@Z 10064d6e f   ScriptFuns.obj
 0001:00063e18       ?LuaSetTaskValue@@YAHPAUlua_State@@@Z 10064e18 f   ScriptFuns.obj
 0001:00063eba       ?LuaGetTempTaskValue@@YAHPAUlua_State@@@Z 10064eba f   ScriptFuns.obj
 0001:00063f5c       ?LuaSetTempTaskValue@@YAHPAUlua_State@@@Z 10064f5c f   ScriptFuns.obj
 0001:00063ffc       ?GetPlayerIndex@@YAHPAUlua_State@@@Z 10064ffc f   ScriptFuns.obj
 0001:00064153       ?GetObjIndex@@YAHPAUlua_State@@@Z 10065153 f   ScriptFuns.obj
 0001:0006429a       ?LuaMessage@@YAHPAUlua_State@@@Z 1006529a f   ScriptFuns.obj
 0001:000642e8       ?LuaPlayMusic@@YAHPAUlua_State@@@Z 100652e8 f   ScriptFuns.obj
 0001:000643f2       ?LuaFadeInMusic@@YAHPAUlua_State@@@Z 100653f2 f   ScriptFuns.obj
 0001:000643f9       ?LuaFadeOutMusic@@YAHPAUlua_State@@@Z 100653f9 f   ScriptFuns.obj
 0001:00064400       ?LuaPlaySound@@YAHPAUlua_State@@@Z 10065400 f   ScriptFuns.obj
 0001:00064407       ?LuaPlaySprMovie@@YAHPAUlua_State@@@Z 10065407 f   ScriptFuns.obj
 0001:0006440e       ?g_GetGameScriptFunNum@@YAHXZ 1006540e f   ScriptFuns.obj
 0001:00064418       ?g_GetWorldScriptFunNum@@YAHXZ 10065418 f   ScriptFuns.obj
 0001:0006448b       ??0KScriptValueSet@@QAE@XZ 1006548b f   KScriptValueSet.obj
 0001:000644f6       ??1KScriptValueSet@@UAE@XZ 100654f6 f   KScriptValueSet.obj
 0001:0006455e       ?Load@KScriptValueSet@@QAEHPAD@Z 1006555e f   KScriptValueSet.obj
 0001:0006480f       ?Save@KScriptValueSet@@QAEHPAD@Z 1006580f f   KScriptValueSet.obj
 0001:00064950       ?SetValue@KScriptValueSet@@QAEHPAD0@Z 10065950 f   KScriptValueSet.obj
 0001:000649ba       ?SetValue@KScriptValueSet@@QAEHPADH@Z 100659ba f   KScriptValueSet.obj
 0001:00064a1a       ?GetValue@KScriptValueSet@@QAEHPAD0@Z 10065a1a f   KScriptValueSet.obj
 0001:00064a85       ?GetValue@KScriptValueSet@@QAEHPADPAH@Z 10065a85 f   KScriptValueSet.obj
 0001:00064ae0       ?AddValue@KScriptValueSet@@AAEXPAD0@Z 10065ae0 f   KScriptValueSet.obj
 0001:00064b87       ?AddValue@KScriptValueSet@@AAEXPADH@Z 10065b87 f   KScriptValueSet.obj
 0001:00064c2b       ?SearchValue@KScriptValueSet@@AAEPAVKNode@@PADH@Z 10065c2b f   KScriptValueSet.obj
 0001:00064cf0       ??_EKScriptValueSet@@UAEPAXI@Z 10065cf0 f i KScriptValueSet.obj
 0001:00064cf0       ??_GKScriptValueSet@@UAEPAXI@Z 10065cf0 f i KScriptValueSet.obj
 0001:00064d30       ??0TStringValueNode@@QAE@PAD0@Z 10065d30 f i KScriptValueSet.obj
 0001:00064d90       ??_GTStringValueNode@@UAEPAXI@Z 10065d90 f i KScriptValueSet.obj
 0001:00064d90       ??_ETStringValueNode@@UAEPAXI@Z 10065d90 f i KScriptValueSet.obj
 0001:00064dd0       ??1TStringValueNode@@UAE@XZ 10065dd0 f i KScriptValueSet.obj
 0001:00064e00       ??0TIntegerValueNode@@QAE@PADH@Z 10065e00 f i KScriptValueSet.obj
 0001:00064e50       ??_GTIntegerValueNode@@UAEPAXI@Z 10065e50 f i KScriptValueSet.obj
 0001:00064e50       ??_ETIntegerValueNode@@UAEPAXI@Z 10065e50 f i KScriptValueSet.obj
 0001:00064e90       ??1TIntegerValueNode@@UAE@XZ 10065e90 f i KScriptValueSet.obj
 0001:00064f91       ??M@YAHVKSortScriptNode@@0@Z 10065f91 f   KSortScript.obj
 0001:00064fb7       ??8@YAHVKSortScriptNode@@0@Z 10065fb7 f   KSortScript.obj
 0001:00064fe0       ?g_IniScriptEngine@@YAKXZ  10065fe0 f   KSortScript.obj
 0001:000650c2       ?g_GetScript@@YAPBVKScript@@K@Z 100660c2 f   KSortScript.obj
 0001:00065116       ?g_GetScript@@YAPBVKScript@@PBD@Z 10066116 f   KSortScript.obj
 0001:00065156       ?LoadScriptInDirectory@@YAXPAD0@Z 10066156 f   KSortScript.obj
 0001:00065751       ?UnLoadScript@@YAXK@Z      10066751 f   KSortScript.obj
 0001:00065790       ?ReLoadScript@@YAHPBD@Z    10066790 f   KSortScript.obj
 0001:00065831       ?ReLoadAllScript@@YAKXZ    10066831 f   KSortScript.obj
 0001:00065850       ?GetScriptID@KSortScriptNode@@QAEKXZ 10066850 f i KSortScript.obj
 0001:00065870       ?SetScriptID@KSortScriptNode@@QAEXK@Z 10066870 f i KSortScript.obj
 0001:00065890       ?GetScript@KSortScriptNode@@QAEPBVKScript@@XZ 10066890 f i KSortScript.obj
 0001:000658d0       ?SetScriptIndex@KSortScriptNode@@QAEXK@Z 100668d0 f i KSortScript.obj
 0001:000658f0       ??0?$BinSTree@VKSortScriptNode@@@@QAE@XZ 100668f0 f i KSortScript.obj
 0001:00065930       ??1?$BinSTree@VKSortScriptNode@@@@QAE@XZ 10066930 f i KSortScript.obj
 0001:00065960       ?Find@?$BinSTree@VKSortScriptNode@@@@QAE_NAAVKSortScriptNode@@@Z 10066960 f i KSortScript.obj
 0001:000659d0       ?Insert@?$BinSTree@VKSortScriptNode@@@@QAEXABVKSortScriptNode@@@Z 100669d0 f i KSortScript.obj
 0001:00065b20       ?Delete@?$BinSTree@VKSortScriptNode@@@@QAEXABVKSortScriptNode@@@Z 10066b20 f i KSortScript.obj
 0001:00065c70       ?ClearList@?$BinSTree@VKSortScriptNode@@@@QAEXXZ 10066c70 f i KSortScript.obj
 0001:00065cc0       ?DeleteTree@?$BinSTree@VKSortScriptNode@@@@AAEXPAV?$TreeNode@VKSortScriptNode@@@@@Z 10066cc0 f i KSortScript.obj
 0001:00065d20       ?FindNode@?$BinSTree@VKSortScriptNode@@@@ABEPAV?$TreeNode@VKSortScriptNode@@@@ABVKSortScriptNode@@AAPAV2@@Z 10066d20 f i KSortScript.obj
 0001:00065df0       ??0?$TreeNode@VKSortScriptNode@@@@QAE@ABVKSortScriptNode@@PAV0@1@Z 10066df0 f i KSortScript.obj
 0001:00065e57       _CoreGetShell              10066e57 f   CoreShell.obj
 0001:00065e6d       ?CoreDataChanged@@YAXIIH@Z 10066e6d f   CoreShell.obj
 0001:00065ea8       ?Release@KCoreShell@@UAEXXZ 10066ea8 f   CoreShell.obj
 0001:00065ec9       ?NetMsgCallbackFunc@KCoreShell@@UAEXPAX@Z 10066ec9 f   CoreShell.obj
 0001:00065ef5       ?SetCallDataChangedNofify@KCoreShell@@UAEHPAUIClientCallback@@@Z 10066ef5 f   CoreShell.obj
 0001:00065f16       ?GetGameData@KCoreShell@@UAEHIIH@Z 10066f16 f   CoreShell.obj
 0001:00067cf3       ?OperationRequest@KCoreShell@@UAEHIIH@Z 10068cf3 f   CoreShell.obj
 0001:0006964c       ?ProcessInput@KCoreShell@@UAEXIIH@Z 1006a64c f   CoreShell.obj
 0001:00069680       ?FindSelectNPC@KCoreShell@@UAEHHHH_NPAXAAH@Z 1006a680 f   CoreShell.obj
 0001:0006978a       ?FindSelectObject@KCoreShell@@UAEHHH_NAAH1@Z 1006a78a f   CoreShell.obj
 0001:00069814       ?FindSpecialNPC@KCoreShell@@UAEHPADPAXAAH@Z 1006a814 f   CoreShell.obj
 0001:00069937       ?ChatSpecialPlayer@KCoreShell@@UAEHPAXPBDG@Z 1006a937 f   CoreShell.obj
 0001:000699e2       ?ApplyAddTeam@KCoreShell@@UAEXPAX@Z 1006a9e2 f   CoreShell.obj
 0001:00069a49       ?TradeApplyStart@KCoreShell@@UAEXPAX@Z 1006aa49 f   CoreShell.obj
 0001:00069ab0       ?UseSkill@KCoreShell@@UAEHHHH@Z 1006aab0 f   CoreShell.obj
 0001:00069f73       ?LockSomeoneUseSkill@KCoreShell@@UAEHHH@Z 1006af73 f   CoreShell.obj
 0001:0006a087       ?LockSomeoneAction@KCoreShell@@UAEHH@Z 1006b087 f   CoreShell.obj
 0001:0006a13a       ?LockObjectAction@KCoreShell@@UAEHH@Z 1006b13a f   CoreShell.obj
 0001:0006a1ad       ?GotoWhere@KCoreShell@@UAEXHHH@Z 1006b1ad f   CoreShell.obj
 0001:0006a2c2       ?Goto@KCoreShell@@UAEXHH@Z 1006b2c2 f   CoreShell.obj
 0001:0006a37e       ?Turn@KCoreShell@@UAEXH@Z  1006b37e f   CoreShell.obj
 0001:0006a3d8       ?ThrowAwayItem@KCoreShell@@UAEHXZ 1006b3d8 f   CoreShell.obj
 0001:0006a3fe       ?GetNPCRelation@KCoreShell@@UAEHH@Z 1006b3fe f   CoreShell.obj
 0001:0006a431       ?DrawGameObj@KCoreShell@@UAEXIIHHHHH@Z 1006b431 f   CoreShell.obj
 0001:0006a47c       ?DrawGameSpace@KCoreShell@@UAEXXZ 1006b47c f   CoreShell.obj
 0001:0006a4b5       ?SetRepresentShell@KCoreShell@@UAEXPAUiRepresentShell@@@Z 1006b4b5 f   CoreShell.obj
 0001:0006a52c       ?SetMusicInterface@KCoreShell@@UAEXPAX@Z 1006b52c f   CoreShell.obj
 0001:0006a567       ?Breathe@KCoreShell@@UAEHXZ 1006b567 f   CoreShell.obj
 0001:0006a5a6       ?GetProtocolSize@KCoreShell@@UAEHE@Z 1006b5a6 f   CoreShell.obj
 0001:0006a5ed       ?Debug@KCoreShell@@UAEHIIH@Z 1006b5ed f   CoreShell.obj
 0001:0006a658       ?GetPing@KCoreShell@@UAEKXZ 1006b658 f   CoreShell.obj
 0001:0006a67e       ?SetRepresentAreaSize@KCoreShell@@UAEXHH@Z 1006b67e f   CoreShell.obj
 0001:0006a6ae       ?SetClient@KCoreShell@@UAEXPAX@Z 1006b6ae f   CoreShell.obj
 0001:0006a6d8       ?SendNewDataToServer@KCoreShell@@UAEXPAXH@Z 1006b6d8 f   CoreShell.obj
 0001:0006a732       ?SceneMapOperation@KCoreShell@@UAEHIIH@Z 1006b732 f   CoreShell.obj
 0001:0006a843       ?TongOperation@KCoreShell@@UAEHIIH@Z 1006b843 f   CoreShell.obj
 0001:0006ab9f       ?TeamOperation@KCoreShell@@UAEHIIH@Z 1006bb9f f   CoreShell.obj
 0001:0006adc0       ??0KCoreShell@@QAE@XZ      1006bdc0 f i CoreShell.obj
 0001:0006adf0       ??0iCoreShell@@QAE@XZ      1006bdf0 f i CoreShell.obj
 0001:0006ae10       ?GetPrice@KItem@@QBEHXZ    1006be10 f i CoreShell.obj
 0001:0006ae30       ?GetLeftSkill@KPlayer@@QAEHXZ 1006be30 f i CoreShell.obj
 0001:0006ae50       ?GetRightSkill@KPlayer@@QAEHXZ 1006be50 f i CoreShell.obj
 0001:0006ae70       ?GetWidth@KBuySell@@QAEHXZ 1006be70 f i CoreShell.obj
 0001:0006ae90       ?GetHeight@KBuySell@@QAEHXZ 1006be90 f i CoreShell.obj
 0001:0006aeb0       ?GetTargetNpc@KPlayer@@QAEHXZ 1006beb0 f i CoreShell.obj
 0001:0006aed0       ?SetTargetNpc@KPlayer@@QAEXH@Z 1006bed0 f i CoreShell.obj
 0001:0006aef0       ?GetTargetObj@KPlayer@@QAEHXZ 1006bef0 f i CoreShell.obj
 0001:0006af10       ?SetTargetObj@KPlayer@@QAEXH@Z 1006bf10 f i CoreShell.obj
 0001:0006af30       ?GetMusicVolume@KOption@@QAEHXZ 1006bf30 f i CoreShell.obj
 0001:0006af50       ?CheckIn@KPlayerTong@@QAEHXZ 1006bf50 f i CoreShell.obj
 0001:0006af70       ??0KIpotBranch@@QAE@XZ     1006bf70 f   KIpotBranch.obj
 0001:0006affc       ??1KIpotBranch@@QAE@XZ     1006bffc f   KIpotBranch.obj
 0001:0006b020       ?EnumerateObjects@KIpotBranch@@QAEXPAXP6AX0PAUKIpotLeaf@@@Z@Z 1006c020 f   KIpotBranch.obj
 0001:0006b12d       ?PaintObjectLayer@KIpotBranch@@QAEXPAUtagRECT@@@Z 1006c12d f   KIpotBranch.obj
 0001:0006b222       ?PaintABranchObject@KIpotBranch@@ABEXPAUKIpotBuildinObj@@PAUtagRECT@@@Z 1006c222 f   KIpotBranch.obj
 0001:0006b6fb       ?PaintNoneObjectLayer@KIpotBranch@@QAEXPAUtagRECT@@H@Z 1006c6fb f   KIpotBranch.obj
 0001:0006b790       ?RemoveAllRtoLeafs@KIpotBranch@@QAEXPAUKIpotLeaf@@@Z 1006c790 f   KIpotBranch.obj
 0001:0006b81d       ?AddAObject@KIpotBranch@@QAEXPAUKIpotBuildinObj@@@Z 1006c81d f   KIpotBranch.obj
 0001:0006b95c       ?AddBranch@KIpotBranch@@QAEXPAUKIpotBuildinObj@@@Z 1006c95c f   KIpotBranch.obj
 0001:0006bb78       ?AddSubBranch@KIpotBranch@@AAEXHPAUKIpotBuildinObj@@@Z 1006cb78 f   KIpotBranch.obj
 0001:0006bc94       ?Clear@KIpotBranch@@QAEXXZ 1006cc94 f   KIpotBranch.obj
 0001:0006be52       ?SetLine@KIpotBranch@@QAEXPAUtagPOINT@@0@Z 1006ce52 f   KIpotBranch.obj
 0001:0006be94       ?AddLeafLine@KIpotBranch@@QAEXPAUKIpotBuildinObj@@@Z 1006ce94 f   KIpotBranch.obj
 0001:0006bfc9       ?AddLeafPoint@KIpotBranch@@QAEXPAUKIpotLeaf@@@Z 1006cfc9 f   KIpotBranch.obj
 0001:0006c09e       ?AddPointLeafToList@KIpotBranch@@AAEXAAPAUKIpotLeaf@@PAU2@1@Z 1006d09e f   KIpotBranch.obj
 0001:0006c38a       ?AddLineLeafToList@KIpotBranch@@AAEXAAPAUKIpotLeaf@@PAUKIpotBuildinObj@@@Z 1006d38a f   KIpotBranch.obj
 0001:0006c610       ??_GKIpotBranch@@QAEPAXI@Z 1006d610 f i KIpotBranch.obj
 0001:0006c650       ?Pluck@KIpotRuntimeObj@@QAEXXZ 1006d650 f   KIpotLeaf.obj
 0001:0006c74f       ?KIpotLeaf_EnumerateObjects@@YAXPAUKIpotLeaf@@PAXP6AX10@Z@Z 1006d74f f   KIpotLeaf.obj
 0001:0006c7c5       ?KIpotLeaf_PaintObjectLayer@@YAXPAUKIpotLeaf@@PAUtagRECT@@@Z 1006d7c5 f   KIpotLeaf.obj
 0001:0006c945       ?KIpotLeaf_PaintNoneObjectLayer@@YAXPAUKIpotLeaf@@PAUtagRECT@@H@Z 1006d945 f   KIpotLeaf.obj
 0001:0006ca36       ?PaintABuildinObject@KIpotBuildinObj@@QAEXPAUtagRECT@@@Z 1006da36 f   KIpotLeaf.obj
 0001:0006cd8e       ?KIpotLeaf_RemoveAllRtoLeafs@@YAXPAUKIpotLeaf@@0@Z 1006dd8e f   KIpotLeaf.obj
 0001:0006ce40       ?KIpotLeaf_Clear@@YAXPAUKIpotLeaf@@@Z 1006de40 f   KIpotLeaf.obj
 0001:0006ceeb       ?Clone@KIpotBuildinObj@@QAEPAU1@PAUtagPOINT@@@Z 1006deeb f   KIpotLeaf.obj
 0001:0006d01f       ?BuildinObjNextFrame@@YAXPAUKBuildinObj@@@Z 1006e01f f   KIpotLeaf.obj
 0001:0006d190       ??0KSelfBreathLight@@QAE@XZ 1006e190 f   KIpoTree.obj
 0001:0006d1e1       ?Breath@KSelfBreathLight@@UAEXXZ 1006e1e1 f   KIpoTree.obj
 0001:0006d2db       ??0KIpoTree@@QAE@XZ        1006e2db f   KIpoTree.obj
 0001:0006d4ac       ??1KIpoTree@@QAE@XZ        1006e4ac f   KIpoTree.obj
 0001:0006d5a6       ?Paint@KIpoTree@@QAEXPAUtagRECT@@W4IPOT_RENDER_LAYER@@@Z 1006e5a6 f   KIpoTree.obj
 0001:0006d670       ?Breathe@KIpoTree@@QAEXXZ  1006e670 f   KIpoTree.obj
 0001:0006d71c       ?Clear@KIpoTree@@QAEXXZ    1006e71c f   KIpoTree.obj
 0001:0006d814       ?RemoveRtoGroupWithPermanentLeaf@KIpoTree@@AAEXXZ 1006e814 f   KIpoTree.obj
 0001:0006d860       ?AddBranch@KIpoTree@@QAEXPAUKIpotBuildinObj@@@Z 1006e860 f   KIpoTree.obj
 0001:0006d918       ?Fell@KIpoTree@@QAEXXZ     1006e918 f   KIpoTree.obj
 0001:0006da4b       ?AddLeafLine@KIpoTree@@QAEXPAUKIpotBuildinObj@@@Z 1006ea4b f   KIpoTree.obj
 0001:0006da90       ?AddLeafPoint@KIpoTree@@QAEXPAUKIpotLeaf@@@Z 1006ea90 f   KIpoTree.obj
 0001:0006dd23       ?PluckRto@KIpoTree@@QAEXPAUKIpotRuntimeObj@@@Z 1006ed23 f   KIpoTree.obj
 0001:0006dded       ?SetPermanentBranchPos@KIpoTree@@QAEXHHH@Z 1006eded f   KIpoTree.obj
 0001:0006de77       ?StrewRtoLeafs@KIpoTree@@QAEXAAUtagRECT@@@Z 1006ee77 f   KIpoTree.obj
 0001:0006dfac       ?ObjectsCallback@KIpoTree@@CAXPAXPAUKIpotLeaf@@@Z 1006efac f   KIpoTree.obj
 0001:0006e192       ?FillLineObstacle@KIpoTree@@AAEXHHHHH@Z 1006f192 f   KIpoTree.obj
 0001:0006e76c       ?RenderLightMap@KIpoTree@@QAEXXZ 1006f76c f   KIpoTree.obj
 0001:0006f432       ?CanLighting@KIpoTree@@AAE_NHHHH@Z 10070432 f   KIpoTree.obj
 0001:0006f7a2       ?AddBuildinLight@KIpoTree@@QAEXPAUKBuildInLightInfo@@H@Z 100707a2 f   KIpoTree.obj
 0001:0006f9f5       ?EnableBioLights@KIpoTree@@QAEX_N@Z 100709f5 f   KIpoTree.obj
 0001:0006fad2       ?EnableDynamicLights@KIpoTree@@QAEX_N@Z 10070ad2 f   KIpoTree.obj
 0001:0006faf0       ??0KLightBase@@QAE@XZ      10070af0 f i KIpoTree.obj
 0001:0006fb10       ?Breath@KLightBase@@UAEXXZ 10070b10 f i KIpoTree.obj
 0001:0006fb30       ?SetColor@KLColor@@QAEXK@Z 10070b30 f i KIpoTree.obj
 0001:0006fb80       ?Scale@KLColor@@QAEXM@Z    10070b80 f i KIpoTree.obj
 0001:0006fc00       ?GetColor@KLColor@@QAEKXZ  10070c00 f i KIpoTree.obj
 0001:0006fc40       ??0?$list@PAVKLightBase@@V?$allocator@PAVKLightBase@@@std@@@std@@QAE@ABV?$allocator@PAVKLightBase@@@1@@Z 10070c40 f i KIpoTree.obj
 0001:0006fc90       ??1?$list@PAVKLightBase@@V?$allocator@PAVKLightBase@@@std@@@std@@QAE@XZ 10070c90 f i KIpoTree.obj
 0001:0006fd10       ?begin@?$list@PAVKLightBase@@V?$allocator@PAVKLightBase@@@std@@@std@@QAE?AViterator@12@XZ 10070d10 f i KIpoTree.obj
 0001:0006fd60       ?end@?$list@PAVKLightBase@@V?$allocator@PAVKLightBase@@@std@@@std@@QAE?AViterator@12@XZ 10070d60 f i KIpoTree.obj
 0001:0006fda0       ?size@?$list@PAVKLightBase@@V?$allocator@PAVKLightBase@@@std@@@std@@QBEIXZ 10070da0 f i KIpoTree.obj
 0001:0006fdc0       ?push_back@?$list@PAVKLightBase@@V?$allocator@PAVKLightBase@@@std@@@std@@QAEXABQAVKLightBase@@@Z 10070dc0 f i KIpoTree.obj
 0001:0006fe10       ?erase@?$list@PAVKLightBase@@V?$allocator@PAVKLightBase@@@std@@@std@@QAE?AViterator@12@V312@@Z 10070e10 f i KIpoTree.obj
 0001:0006fef0       ?clear@?$list@PAVKLightBase@@V?$allocator@PAVKLightBase@@@std@@@std@@QAEXXZ 10070ef0 f i KIpoTree.obj
 0001:0006ff50       ??0iterator@?$list@PAVKLightBase@@V?$allocator@PAVKLightBase@@@std@@@std@@QAE@XZ 10070f50 f i KIpoTree.obj
 0001:0006ff80       ??Diterator@?$list@PAVKLightBase@@V?$allocator@PAVKLightBase@@@std@@@std@@QBEAAPAVKLightBase@@XZ 10070f80 f i KIpoTree.obj
 0001:0006ffb0       ??Eiterator@?$list@PAVKLightBase@@V?$allocator@PAVKLightBase@@@std@@@std@@QAEAAV012@XZ 10070fb0 f i KIpoTree.obj
 0001:0006fff0       ??9iterator@?$list@PAVKLightBase@@V?$allocator@PAVKLightBase@@@std@@@std@@QBE_NABV012@@Z 10070ff0 f i KIpoTree.obj
 0001:00070030       ?insert@?$list@PAVKLightBase@@V?$allocator@PAVKLightBase@@@std@@@std@@QAE?AViterator@12@V312@ABQAVKLightBase@@@Z 10071030 f i KIpoTree.obj
 0001:00070110       ?erase@?$list@PAVKLightBase@@V?$allocator@PAVKLightBase@@@std@@@std@@QAE?AViterator@12@V312@0@Z 10071110 f i KIpoTree.obj
 0001:00070180       ?_Buynode@?$list@PAVKLightBase@@V?$allocator@PAVKLightBase@@@std@@@std@@IAEPAU_Node@12@PAU312@0@Z 10071180 f i KIpoTree.obj
 0001:00070210       ?_Freenode@?$list@PAVKLightBase@@V?$allocator@PAVKLightBase@@@std@@@std@@IAEXPAU_Node@12@@Z 10071210 f i KIpoTree.obj
 0001:00070240       ?_Next@_Acc@?$list@PAVKLightBase@@V?$allocator@PAVKLightBase@@@std@@@std@@SAAAPAU_Node@23@PAU423@@Z 10071240 f i KIpoTree.obj
 0001:00070250       ?_Prev@_Acc@?$list@PAVKLightBase@@V?$allocator@PAVKLightBase@@@std@@@std@@SAAAPAU_Node@23@PAU423@@Z 10071250 f i KIpoTree.obj
 0001:00070260       ?_Value@_Acc@?$list@PAVKLightBase@@V?$allocator@PAVKLightBase@@@std@@@std@@SAAAPAVKLightBase@@PAU_Node@23@@Z 10071260 f i KIpoTree.obj
 0001:00070270       ?destroy@?$allocator@PAVKLightBase@@@std@@QAEXPAPAVKLightBase@@@Z 10071270 f i KIpoTree.obj
 0001:000702a0       ??0const_iterator@?$list@PAVKLightBase@@V?$allocator@PAVKLightBase@@@std@@@std@@QAE@XZ 100712a0 f i KIpoTree.obj
 0001:000702c0       ?_Mynode@const_iterator@?$list@PAVKLightBase@@V?$allocator@PAVKLightBase@@@std@@@std@@QBEPAU_Node@23@XZ 100712c0 f i KIpoTree.obj
 0001:000702e0       ??0iterator@?$list@PAVKLightBase@@V?$allocator@PAVKLightBase@@@std@@@std@@QAE@PAU_Node@12@@Z 100712e0 f i KIpoTree.obj
 0001:00070310       ??Eiterator@?$list@PAVKLightBase@@V?$allocator@PAVKLightBase@@@std@@@std@@QAE?AV012@H@Z 10071310 f i KIpoTree.obj
 0001:00070360       ??8iterator@?$list@PAVKLightBase@@V?$allocator@PAVKLightBase@@@std@@@std@@QBE_NABV012@@Z 10071360 f i KIpoTree.obj
 0001:00070390       ?_Charalloc@?$allocator@PAVKLightBase@@@std@@QAEPADI@Z 10071390 f i KIpoTree.obj
 0001:000703c0       ?deallocate@?$allocator@PAVKLightBase@@@std@@QAEXPAXI@Z 100713c0 f i KIpoTree.obj
 0001:000703f0       ?construct@?$allocator@PAVKLightBase@@@std@@QAEXPAPAVKLightBase@@ABQAV3@@Z 100713f0 f i KIpoTree.obj
 0001:00070420       ??0const_iterator@?$list@PAVKLightBase@@V?$allocator@PAVKLightBase@@@std@@@std@@QAE@PAU_Node@12@@Z 10071420 f i KIpoTree.obj
 0001:00070440       ?_Destroy@std@@YAXPAPAVKLightBase@@@Z 10071440 f i KIpoTree.obj
 0001:00070450       ?_Allocate@std@@YAPADHPAD@Z 10071450 f i KIpoTree.obj
 0001:00070480       ?_Construct@std@@YAXPAPAVKLightBase@@ABQAV2@@Z 10071480 f i KIpoTree.obj
 0001:000704e0       ??2@YAPAXIPAX@Z            100714e0 f i KIpoTree.obj
 0001:0007054b       ?ChaZhiColor@@YAKAAUKLColor@@0M@Z 1007154b f   KScenePlaceC.obj
 0001:0007063a       ??0EnvironmentLight@@QAE@XZ 1007163a f   KScenePlaceC.obj
 0001:00070754       ?SetLight@EnvironmentLight@@QAEXABUKLColor@@H@Z 10071754 f   KScenePlaceC.obj
 0001:0007077f       ?SetLight@EnvironmentLight@@QAEXEEEH@Z 1007177f f   KScenePlaceC.obj
 0001:000707c2       ?SetLight@EnvironmentLight@@QAEXPAUKLColor@@@Z 100717c2 f   KScenePlaceC.obj
 0001:00070815       ?GetEnvironmentLight@EnvironmentLight@@QAEKH@Z 10071815 f   KScenePlaceC.obj
 0001:00070b15       ??0KScenePlaceC@@QAE@XZ    10071b15 f   KScenePlaceC.obj
 0001:00070d89       ??1KScenePlaceC@@QAE@XZ    10071d89 f   KScenePlaceC.obj
 0001:00070e18       ?ClosePlace@KScenePlaceC@@QAEXXZ 10071e18 f   KScenePlaceC.obj
 0001:0007102b       ?Initialize@KScenePlaceC@@QAE_NXZ 1007202b f   KScenePlaceC.obj
 0001:000711c4       ?OpenPlace@KScenePlaceC@@QAE_NH@Z 100721c4 f   KScenePlaceC.obj
 0001:00071b5d       ?SetFocusPosition@KScenePlaceC@@QAEXHHH@Z 10072b5d f   KScenePlaceC.obj
 0001:000721c8       ?SetRepresentAreaSize@KScenePlaceC@@QAEXHH@Z 100731c8 f   KScenePlaceC.obj
 0001:0007223c       ?GetFocusPosition@KScenePlaceC@@QAEXAAH00@Z 1007323c f   KScenePlaceC.obj
 0001:0007226f       ?Terminate@KScenePlaceC@@QAEXXZ 1007326f f   KScenePlaceC.obj
 0001:00072473       ?PreLoadProcess@KScenePlaceC@@AAEXXZ 10073473 f   KScenePlaceC.obj
 0001:00072709       ?LoadProcess@KScenePlaceC@@AAEXXZ 10073709 f   KScenePlaceC.obj
 0001:000728a7       ?LoadThreadEntrance@KScenePlaceC@@CGKPAX@Z 100738a7 f   KScenePlaceC.obj
 0001:000728c5       ?SetRegionsToLoad@KScenePlaceC@@AAEXXZ 100738c5 f   KScenePlaceC.obj
 0001:00072ec4       ?AddObject@KScenePlaceC@@QAEIIHHHHH@Z 10073ec4 f   KScenePlaceC.obj
 0001:00073041       ?MoveObject@KScenePlaceC@@QAEIIHHHHAAIH@Z 10074041 f   KScenePlaceC.obj
 0001:0007322d       ?RemoveObject@KScenePlaceC@@QAEXIHAAI@Z 1007422d f   KScenePlaceC.obj
 0001:000732b6       ?Breathe@KScenePlaceC@@QAEXXZ 100742b6 f   KScenePlaceC.obj
 0001:00073438       ?Paint@KScenePlaceC@@QAEXXZ 10074438 f   KScenePlaceC.obj
 0001:00073845       ?ChangeLoadArea@KScenePlaceC@@AAEXXZ 10074845 f   KScenePlaceC.obj
 0001:00073869       ?ChangeProcessArea@KScenePlaceC@@AAEXXZ 10074869 f   KScenePlaceC.obj
 0001:00073b22       ?PrerenderGround@KScenePlaceC@@AAEX_N@Z 10074b22 f   KScenePlaceC.obj
 0001:00073bb7       ?Preprocess@KScenePlaceC@@AAEXXZ 10074bb7 f   KScenePlaceC.obj
 0001:000748d2       ?ClearPreprocess@KScenePlaceC@@AAEXH@Z 100758d2 f   KScenePlaceC.obj
 0001:00074984       ?ProjectDistToSpaceDist@KScenePlaceC@@QAEXAAH0@Z 10075984 f   KScenePlaceC.obj
 0001:000749a7       ?ViewPortCoordToSpaceCoord@KScenePlaceC@@QAEXAAH0H@Z 100759a7 f   KScenePlaceC.obj
 0001:00074a39       ?GetRegionLeftTopPos@KScenePlaceC@@QAEXHHAAH0@Z 10075a39 f   KScenePlaceC.obj
 0001:00074a63       ?ARegionLoaded@KScenePlaceC@@AAEXPAVKScenePlaceRegionC@@@Z 10075a63 f   KScenePlaceC.obj
 0001:00074d42       ?GetFreeGroundImage@KScenePlaceC@@AAEPAUKRUImage@@XZ 10075d42 f   KScenePlaceC.obj
 0001:00074daf       ?GetObstacleInfo@KScenePlaceC@@QAEJHH@Z 10075daf f   KScenePlaceC.obj
 0001:00074e73       ?GetObstacleInfoMin@KScenePlaceC@@QAEJHHHH@Z 10075e73 f   KScenePlaceC.obj
 0001:00074f3f       ?RepresentShellReset@KScenePlaceC@@QAEXXZ 10075f3f f   KScenePlaceC.obj
 0001:00074f9d       ?SetRegionLoadedCallback@KScenePlaceC@@QAEXP6AXHH@Z@Z 10075f9d f   KScenePlaceC.obj
 0001:00074fb9       ?SetHightLightSpecialObject@KScenePlaceC@@QAEXHHH@Z 10075fb9 f   KScenePlaceC.obj
 0001:00075117       ?UnsetHightLightSpecialObject@KScenePlaceC@@QAEXXZ 10076117 f   KScenePlaceC.obj
 0001:000751ea       ?GetLoadedRegion@KScenePlaceC@@AAEPAVKScenePlaceRegionC@@HH@Z 100761ea f   KScenePlaceC.obj
 0001:000752cb       ?GetSceneNameAndFocus@KScenePlaceC@@QAEXPADAAH11@Z 100762cb f   KScenePlaceC.obj
 0001:0007536f       ?SetAmbient@KScenePlaceC@@QAEXK@Z 1007636f f   KScenePlaceC.obj
 0001:0007539f       ?SetCurrentTime@KScenePlaceC@@QAEXK@Z 1007639f f   KScenePlaceC.obj
 0001:000753f3       ?SetEnvironmentLight@KScenePlaceC@@QAEXHEEE@Z 100763f3 f   KScenePlaceC.obj
 0001:0007542f       ?EnableBioLights@KScenePlaceC@@QAEX_N@Z 1007642f f   KScenePlaceC.obj
 0001:0007545f       ?EnableDynamicLights@KScenePlaceC@@QAEX_N@Z 1007645f f   KScenePlaceC.obj
 0001:0007548f       ?ChangeWeather@KScenePlaceC@@QAEXH@Z 1007648f f   KScenePlaceC.obj
 0001:000755ee       ?EnableWeather@KScenePlaceC@@QAEXH@Z 100765ee f   KScenePlaceC.obj
 0001:00075648       ?SetLoadingStatus@KScenePlaceC@@AAEX_N@Z 10076648 f   KScenePlaceC.obj
 0001:000756c7       ?PaintMap@KScenePlaceC@@QAEXHH@Z 100766c7 f   KScenePlaceC.obj
 0001:000756fb       ?SetMapParam@KScenePlaceC@@QAEXIH@Z 100766fb f   KScenePlaceC.obj
 0001:00075750       ?SetMapFocusPositionOffset@KScenePlaceC@@QAEXHH@Z 10076750 f   KScenePlaceC.obj
 0001:000757e4       ?GetMapInfo@KScenePlaceC@@QAEHPAUKSceneMapInfo@@@Z 100767e4 f   KScenePlaceC.obj
 0001:00075949       ?FollowMapMove@KScenePlaceC@@QAEXH@Z 10076949 f   KScenePlaceC.obj
 0001:00075a40       ?SetIsIndoor@KIpoTree@@QAEX_N@Z 10076a40 f i KScenePlaceC.obj
 0001:00075a60       ?SetLightenAreaLeftTopPos@KIpoTree@@QAEXHH@Z 10076a60 f i KScenePlaceC.obj
 0001:00075a90       ?SetFocusPos@KWeather@@QAEXHH@Z 10076a90 f i KScenePlaceC.obj
 0001:00075ae0       ?GetPrerenderGroundImage@KScenePlaceRegionC@@QAEPAUKRUImage@@XZ 10076ae0 f i KScenePlaceC.obj
 0001:00075b00       ?AddHead@KList@@QAEXPAVKNode@@@Z 10076b00 f i KScenePlaceC.obj
 0001:00075b30       ?InsertAfter@KNode@@QAEXPAV1@@Z 10076b30 f i KScenePlaceC.obj
 0001:00075bb0       ??0TreeObjSet@?BH@??Preprocess@KScenePlaceC@@AAEXXZ@QAE@XZ 10076bb0 f i KScenePlaceC.obj
 0001:00075be0       ??_ETreeObjSet@?BH@??Preprocess@KScenePlaceC@@AAEXXZ@UAEPAXI@Z 10076be0 f i KScenePlaceC.obj
 0001:00075c70       ??1TreeObjSet@?BH@??Preprocess@KScenePlaceC@@AAEXXZ@UAE@XZ 10076c70 f i KScenePlaceC.obj
 0001:00075ca0       ?SetAmbient@KIpoTree@@QAEXK@Z 10076ca0 f i KScenePlaceC.obj
 0001:00075cc0       ?SetCurrentTime@KIpoTree@@QAEXH@Z 10076cc0 f i KScenePlaceC.obj
 0001:00075ce0       ?ShutDown@KWeather@@QAEXXZ 10076ce0 f i KScenePlaceC.obj
 0001:00075d00       ??0KScenePlaceRegionC@@QAE@XZ 10076d00 f   KScenePlaceRegionC.obj
 0001:00075da2       ??1KScenePlaceRegionC@@QAE@XZ 10076da2 f   KScenePlaceRegionC.obj
 0001:00075dc6       ?GetRegionIndex@KScenePlaceRegionC@@QBEXAAH0@Z 10076dc6 f   KScenePlaceRegionC.obj
 0001:00075df0       ?ToLoad@KScenePlaceRegionC@@QAE_NHH@Z 10076df0 f   KScenePlaceRegionC.obj
 0001:00075e6e       ?Load@KScenePlaceRegionC@@QAE_NPBD@Z 10076e6e f   KScenePlaceRegionC.obj
 0001:0007639e       ?Clear@KScenePlaceRegionC@@QAEXXZ 1007739e f   KScenePlaceRegionC.obj
 0001:000764e9       ?PrerenderGround@KScenePlaceRegionC@@QAE_N_N@Z 100774e9 f   KScenePlaceRegionC.obj
 0001:00076938       ?SetNestRegion@KScenePlaceRegionC@@QAEXPAV1@@Z 10077938 f   KScenePlaceRegionC.obj
 0001:00076b9f       ?LoadGroundLayer@KScenePlaceRegionC@@AAE_NPAVKPakFile@@I@Z 10077b9f f   KScenePlaceRegionC.obj
 0001:00076d27       ?AddGrundCoverObj@KScenePlaceRegionC@@AAEXPAUKSPRCoverGroundObj@@@Z 10077d27 f   KScenePlaceRegionC.obj
 0001:00076f1c       ?LoadObstacle@KScenePlaceRegionC@@AAEXPAVKPakFile@@I@Z 10077f1c f   KScenePlaceRegionC.obj
 0001:00076f81       ?LoadTrap@KScenePlaceRegionC@@AAEXPAVKPakFile@@I@Z 10077f81 f   KScenePlaceRegionC.obj
 0001:0007708f       ?LoadAboveGroundObjects@KScenePlaceRegionC@@AAE_NPAVKPakFile@@I@Z 1007808f f   KScenePlaceRegionC.obj
 0001:00077314       ?PaintGroundDirect@KScenePlaceRegionC@@QAEXXZ 10078314 f   KScenePlaceRegionC.obj
 0001:000778cf       ?PaintGround@KScenePlaceRegionC@@QAEXXZ 100788cf f   KScenePlaceRegionC.obj
 0001:00077926       ?PaintObstacle@KScenePlaceRegionC@@QAEXXZ 10078926 f   KScenePlaceRegionC.obj
 0001:00077dba       ?PaintAboveHeadObj@KScenePlaceRegionC@@SAXPAUKBuildinObj@@PAUtagRECT@@@Z 10078dba f   KScenePlaceRegionC.obj
 0001:00077fc2       ?GetAboveHeadLayer@KScenePlaceRegionC@@QAEIAAPAUKBuildinObj@@@Z 10078fc2 f   KScenePlaceRegionC.obj
 0001:00078030       ?GetBuildinLights@KScenePlaceRegionC@@QAEIAAPAUKBuildInLightInfo@@@Z 10079030 f   KScenePlaceRegionC.obj
 0001:00078084       ?GetBuildinObjs@KScenePlaceRegionC@@QAEXAAPAUKIpotBuildinObj@@AAI0101@Z 10079084 f   KScenePlaceRegionC.obj
 0001:00078174       ?GetBIOSBuildinObjs@KScenePlaceRegionC@@QAEXAAPAUKBuildinObj@@AAI@Z 10079174 f   KScenePlaceRegionC.obj
 0001:000781af       ?LeaveProcessArea@KScenePlaceRegionC@@QAEXXZ 100791af f   KScenePlaceRegionC.obj
 0001:00078220       ?EnterProcessArea@KScenePlaceRegionC@@QAEXPAUKRUImage@@@Z 10079220 f   KScenePlaceRegionC.obj
 0001:000785c0       ?GetObstacleInfo@KScenePlaceRegionC@@QAEJHH@Z 100795c0 f   KScenePlaceRegionC.obj
 0001:0007873c       ?GetObstacleInfoMin@KScenePlaceRegionC@@QAEJHHHH@Z 1007973c f   KScenePlaceRegionC.obj
 0001:0007891d       ?SetHightLightSpecialObject@KScenePlaceRegionC@@QAEXI@Z 1007991d f   KScenePlaceRegionC.obj
 0001:0007896c       ?UnsetHightLightSpecialObject@KScenePlaceRegionC@@QAEXI@Z 1007996c f   KScenePlaceRegionC.obj
 0001:000789c0       ??0KWeather@@QAE@XZ        100799c0 f   KWeather.obj
 0001:00078a6c       ??1KWeather@@UAE@XZ        10079a6c f   KWeather.obj
 0001:00078ad4       ?Breath@KWeather@@UAEXXZ   10079ad4 f   KWeather.obj
 0001:00078b1f       ??0KWeatherRain@@QAE@XZ    10079b1f f   KWeather.obj
 0001:00078c1b       ??1KWeatherRain@@UAE@XZ    10079c1b f   KWeather.obj
 0001:00078ca8       ?ReadInfoFromIniFile@KWeatherRain@@UAE_NH@Z 10079ca8 f   KWeather.obj
 0001:000790ec       ?Breath@KWeatherRain@@UAEXXZ 1007a0ec f   KWeather.obj
 0001:00079787       ?Render@KWeatherRain@@UAEXPAUiRepresentShell@@@Z 1007a787 f   KWeather.obj
 0001:00079a38       ?FilterAmbient@KWeatherRain@@UAEXAAK@Z 1007aa38 f   KWeather.obj
 0001:00079ab1       ?ReadInfoFromIniFile@KWeatherSnow@@UAE_NH@Z 1007aab1 f   KWeather.obj
 0001:00079cb7       ?Breath@KWeatherSnow@@UAEXXZ 1007acb7 f   KWeather.obj
 0001:00079fbe       ?Render@KWeatherSnow@@UAEXPAUiRepresentShell@@@Z 1007afbe f   KWeather.obj
 0001:0007a220       ?FilterAmbient@KWeather@@UAEXAAK@Z 1007b220 f i KWeather.obj
 0001:0007a240       ??_GKWeather@@UAEPAXI@Z    1007b240 f i KWeather.obj
 0001:0007a240       ??_EKWeather@@UAEPAXI@Z    1007b240 f i KWeather.obj
 0001:0007a280       ?IsShutDown@KWeatherRain@@UAE_NXZ 1007b280 f i KWeather.obj
 0001:0007a2a0       ??_EKWeatherRain@@UAEPAXI@Z 1007b2a0 f i KWeather.obj
 0001:0007a2a0       ??_GKWeatherRain@@UAEPAXI@Z 1007b2a0 f i KWeather.obj
 0001:0007a2e0       ?SetParticleNum@KWeather@@QAEXH@Z 1007b2e0 f i KWeather.obj
 0001:0007a310       ?SetDownSpeed@KWeather@@QAEXM@Z 1007b310 f i KWeather.obj
 0001:0007a330       ?SetWindSpeed@KWeather@@QAEXM@Z 1007b330 f i KWeather.obj
 0001:0007a350       ?SetLifeTime@KWeather@@QAEXH@Z 1007b350 f i KWeather.obj
 0001:0007a380       ?SetFlareTime@KWeatherRain@@QAEXH@Z 1007b380 f i KWeather.obj
 0001:0007a3b0       ?SetColor@KLColor@@QAEXHHH@Z 1007b3b0 f i KWeather.obj
 0001:0007a3f0       ??YKLColor@@QAEABU0@AAU0@@Z 1007b3f0 f i KWeather.obj
 0001:0007a450       ??0?$list@UKParticle@@V?$allocator@UKParticle@@@std@@@std@@QAE@ABV?$allocator@UKParticle@@@1@@Z 1007b450 f i KWeather.obj
 0001:0007a4a0       ??1?$list@UKParticle@@V?$allocator@UKParticle@@@std@@@std@@QAE@XZ 1007b4a0 f i KWeather.obj
 0001:0007a520       ?begin@?$list@UKParticle@@V?$allocator@UKParticle@@@std@@@std@@QAE?AViterator@12@XZ 1007b520 f i KWeather.obj
 0001:0007a570       ?end@?$list@UKParticle@@V?$allocator@UKParticle@@@std@@@std@@QAE?AViterator@12@XZ 1007b570 f i KWeather.obj
 0001:0007a5b0       ?push_back@?$list@UKParticle@@V?$allocator@UKParticle@@@std@@@std@@QAEXABUKParticle@@@Z 1007b5b0 f i KWeather.obj
 0001:0007a600       ?erase@?$list@UKParticle@@V?$allocator@UKParticle@@@std@@@std@@QAE?AViterator@12@V312@@Z 1007b600 f i KWeather.obj
 0001:0007a6e0       ?clear@?$list@UKParticle@@V?$allocator@UKParticle@@@std@@@std@@QAEXXZ 1007b6e0 f i KWeather.obj
 0001:0007a740       ??0iterator@?$list@UKParticle@@V?$allocator@UKParticle@@@std@@@std@@QAE@XZ 1007b740 f i KWeather.obj
 0001:0007a770       ??Citerator@?$list@UKParticle@@V?$allocator@UKParticle@@@std@@@std@@QBEPAUKParticle@@XZ 1007b770 f i KWeather.obj
 0001:0007a7a0       ??Eiterator@?$list@UKParticle@@V?$allocator@UKParticle@@@std@@@std@@QAEAAV012@XZ 1007b7a0 f i KWeather.obj
 0001:0007a7e0       ??Eiterator@?$list@UKParticle@@V?$allocator@UKParticle@@@std@@@std@@QAE?AV012@H@Z 1007b7e0 f i KWeather.obj
 0001:0007a830       ??9iterator@?$list@UKParticle@@V?$allocator@UKParticle@@@std@@@std@@QBE_NABV012@@Z 1007b830 f i KWeather.obj
 0001:0007a870       ?insert@?$list@UKParticle@@V?$allocator@UKParticle@@@std@@@std@@QAE?AViterator@12@V312@ABUKParticle@@@Z 1007b870 f i KWeather.obj
 0001:0007a950       ?erase@?$list@UKParticle@@V?$allocator@UKParticle@@@std@@@std@@QAE?AViterator@12@V312@0@Z 1007b950 f i KWeather.obj
 0001:0007a9c0       ?_Buynode@?$list@UKParticle@@V?$allocator@UKParticle@@@std@@@std@@IAEPAU_Node@12@PAU312@0@Z 1007b9c0 f i KWeather.obj
 0001:0007aa50       ?_Freenode@?$list@UKParticle@@V?$allocator@UKParticle@@@std@@@std@@IAEXPAU_Node@12@@Z 1007ba50 f i KWeather.obj
 0001:0007aa80       ?_Next@_Acc@?$list@UKParticle@@V?$allocator@UKParticle@@@std@@@std@@SAAAPAU_Node@23@PAU423@@Z 1007ba80 f i KWeather.obj
 0001:0007aa90       ?_Prev@_Acc@?$list@UKParticle@@V?$allocator@UKParticle@@@std@@@std@@SAAAPAU_Node@23@PAU423@@Z 1007ba90 f i KWeather.obj
 0001:0007aaa0       ?_Value@_Acc@?$list@UKParticle@@V?$allocator@UKParticle@@@std@@@std@@SAAAUKParticle@@PAU_Node@23@@Z 1007baa0 f i KWeather.obj
 0001:0007aab0       ?destroy@?$allocator@UKParticle@@@std@@QAEXPAUKParticle@@@Z 1007bab0 f i KWeather.obj
 0001:0007aae0       ??0const_iterator@?$list@UKParticle@@V?$allocator@UKParticle@@@std@@@std@@QAE@XZ 1007bae0 f i KWeather.obj
 0001:0007ab00       ?_Mynode@const_iterator@?$list@UKParticle@@V?$allocator@UKParticle@@@std@@@std@@QBEPAU_Node@23@XZ 1007bb00 f i KWeather.obj
 0001:0007ab20       ??0iterator@?$list@UKParticle@@V?$allocator@UKParticle@@@std@@@std@@QAE@PAU_Node@12@@Z 1007bb20 f i KWeather.obj
 0001:0007ab50       ??Diterator@?$list@UKParticle@@V?$allocator@UKParticle@@@std@@@std@@QBEAAUKParticle@@XZ 1007bb50 f i KWeather.obj
 0001:0007ab80       ??8iterator@?$list@UKParticle@@V?$allocator@UKParticle@@@std@@@std@@QBE_NABV012@@Z 1007bb80 f i KWeather.obj
 0001:0007abb0       ?_Charalloc@?$allocator@UKParticle@@@std@@QAEPADI@Z 1007bbb0 f i KWeather.obj
 0001:0007abe0       ?deallocate@?$allocator@UKParticle@@@std@@QAEXPAXI@Z 1007bbe0 f i KWeather.obj
 0001:0007ac10       ?construct@?$allocator@UKParticle@@@std@@QAEXPAUKParticle@@ABU3@@Z 1007bc10 f i KWeather.obj
 0001:0007ac40       ??0const_iterator@?$list@UKParticle@@V?$allocator@UKParticle@@@std@@@std@@QAE@PAU_Node@12@@Z 1007bc40 f i KWeather.obj
 0001:0007ac60       ?_Destroy@std@@YAXPAUKParticle@@@Z 1007bc60 f i KWeather.obj
 0001:0007ac70       ?_Construct@std@@YAXPAUKParticle@@ABU2@@Z 1007bc70 f i KWeather.obj
 0001:0007acd0       ?SM_IsPointOnLine@@YAHAAUtagPOINT@@0U1@@Z 1007bcd0 f   SceneMath.obj
 0001:0007ad91       ?SM_Distance_PointLine@@YAHABUtagPOINT@@00@Z 1007bd91 f   SceneMath.obj
 0001:0007ae61       ?SM_Relation_PointLine@@YA?AW4RELATION_ENUM@@ABUtagPOINT@@00@Z 1007be61 f   SceneMath.obj
 0001:0007af6e       ?SM_Relation_PointLine_New@@YA?AW4RELATION_ENUM@@ABUtagPOINT@@00@Z 1007bf6e f   SceneMath.obj
 0001:0007b0c2       ?SM_Relation_LineLine_CheckCut@@YA?AW4RELATION_ENUM@@ABUtagPOINT@@000AAU2@@Z 1007c0c2 f   SceneMath.obj
 0001:0007b342       ?SM_GetPointFromFloatSting32@@YAXPADAAM11@Z 1007c342 f   SceneMath.obj
 0001:0007b4d3       ?ChangeFileName@@YAXPAD0@Z 1007c4d3 f   SceneMath.obj
 0001:0007b560       ??0KScenePlaceMapC@@QAE@XZ 1007c560 f   ScenePlaceMapC.obj
 0001:0007b6cc       ??1KScenePlaceMapC@@QAE@XZ 1007c6cc f   ScenePlaceMapC.obj
 0001:0007b6f0       ?Initialize@KScenePlaceMapC@@AAE_NXZ 1007c6f0 f   ScenePlaceMapC.obj
 0001:0007bd4f       ?Terminate@KScenePlaceMapC@@QAEXXZ 1007cd4f f   ScenePlaceMapC.obj
 0001:0007be6f       ?SetShowElemsFlag@KScenePlaceMapC@@QAEXI@Z 1007ce6f f   ScenePlaceMapC.obj
 0001:0007bec7       ?Load@KScenePlaceMapC@@QAEXPAVKIniFile@@PBD@Z 1007cec7 f   ScenePlaceMapC.obj
 0001:0007c0c9       ?SetFocusPosition@KScenePlaceMapC@@QAEXHH_N@Z 1007d0c9 f   ScenePlaceMapC.obj
 0001:0007c2f0       ?FillCellsPicInfo@KScenePlaceMapC@@AAEXXZ 1007d2f0 f   ScenePlaceMapC.obj
 0001:0007c842       ?CalcPicLayout@KScenePlaceMapC@@AAEXXZ 1007d842 f   ScenePlaceMapC.obj
 0001:0007c9c4       ?Free@KScenePlaceMapC@@QAEXXZ 1007d9c4 f   ScenePlaceMapC.obj
 0001:0007ca17       ?PaintMap@KScenePlaceMapC@@QAEXHH@Z 1007da17 f   ScenePlaceMapC.obj
 0001:0007cbc2       ?PaintCharacters@KScenePlaceMapC@@AAEXHH@Z 1007dbc2 f   ScenePlaceMapC.obj
 0001:0007d1a7       ?PaintMapPic@KScenePlaceMapC@@AAEXHH@Z 1007e1a7 f   ScenePlaceMapC.obj
 0001:0007d47b       ?SetSize@KScenePlaceMapC@@QAEXHH@Z 1007e47b f   ScenePlaceMapC.obj
 0001:0007d624       ?GetMapRect@KScenePlaceMapC@@QAEHPAUtagRECT@@@Z 1007e624 f   ScenePlaceMapC.obj
 0001:0007d6d0       ?CoreDrawGameObj@@YAXIIHHHHH@Z 1007e6d0 f   CoreDrawGameObj.obj
 0001:0007dd9a       ?CoreGetGameObjLightInfo@@YAXIIPAUKLightInfo@@@Z 1007ed9a f   CoreDrawGameObj.obj
 0001:0007df30       ?GetNpcRes@KNpc@@QAEPAVKNpcRes@@XZ 1007ef30 f i CoreDrawGameObj.obj
 0001:0007df50       ?IR_GetCurrentTime@@YAIXZ  1007ef50 f   ImgRef.obj
 0001:0007df5a       ?IR_UpdateTime@@YAXXZ      1007ef5a f   ImgRef.obj
 0001:0007df7c       ?IR_NextFrame@@YAXAAHHIAAI@Z 1007ef7c f   ImgRef.obj
 0001:0007e03b       ??0KMagicDesc@@QAE@XZ      1007f03b f   KMagicDesc.obj
 0001:0007e075       ??1KMagicDesc@@QAE@XZ      1007f075 f   KMagicDesc.obj
 0001:0007e0a5       ?Init@KMagicDesc@@QAEHXZ   1007f0a5 f   KMagicDesc.obj
 0001:0007e0da       ?GetDesc@KMagicDesc@@QAEPBDPAX@Z 1007f0da f   KMagicDesc.obj
 0001:0007e60d       ?g_MagicID2String@@YAPBDH@Z 1007f60d f   KMagicDesc.obj
 0001:0007e633       ?g_String2MagicID@@YAHPAD@Z 1007f633 f   KMagicDesc.obj
 0001:0007e6b0       ?TextGMFilter@@YAHHPBDH@Z  1007f6b0 f   KGMCommand.obj
 0001:0007e7a0       ?TextMsgProcessGMCmd@@YAHHPBDH@Z 1007f7a0 f   KGMCommand.obj
 0001:0007e8bc       ?ProcessGMCommand@@YAHHW4EGameMasterCommand@@PBDH@Z 1007f8bc f   KGMCommand.obj
 0001:0007ebfd       ?GetNextUnit@@YAHPBDDHPAD@Z 1007fbfd f   KGMCommand.obj
 0001:0007ed53       ?g_GetStringRes@@YAPADHPADH@Z 1007fd53 f   KTaskFuns.obj
 0001:0007edd0       ?SetGamma@KOption@@QAEXH@Z 1007fdd0 f   KOption.obj
 0001:0007ee16       ?SetSndVolume@KOption@@QAEXH@Z 1007fe16 f   KOption.obj
 0001:0007ee76       ?SetMusicVolume@KOption@@QAEXH@Z 1007fe76 f   KOption.obj
 0001:0007ef00       ??0KMapMusic@@QAE@XZ       1007ff00 f   KMapMusic.obj
 0001:0007f00e       ??1KMapMusic@@QAE@XZ       1008000e f   KMapMusic.obj
 0001:0007f032       ?Release@KMapMusic@@AAEXXZ 10080032 f   KMapMusic.obj
 0001:0007f0e1       ?LoadSetFile@KMapMusic@@QAEXXZ 100800e1 f   KMapMusic.obj
 0001:0007f6ce       ?Init@KMapMusic@@QAEXXZ    100806ce f   KMapMusic.obj
 0001:0007f706       ?Play@KMapMusic@@QAEXHHH@Z 10080706 f   KMapMusic.obj
 0001:0008033a       ?Stop@KMapMusic@@QAEXXZ    1008133a f   KMapMusic.obj
 0001:00080383       ?SetGameVolume@KMapMusic@@QAEXH@Z 10081383 f   KMapMusic.obj
 0001:00080426       ?SetWeatherVolume@KMapMusic@@QAEXH@Z 10081426 f   KMapMusic.obj
 0001:000804d1       ?Start@KMapMusic@@QAEXHHH@Z 100814d1 f   KMapMusic.obj
 0001:00080516       ?ScriptPlay@KMapMusic@@QAEXPAD@Z 10081516 f   KMapMusic.obj
 0001:00080630       ??0KMapAllMusic@@QAE@XZ    10081630 f i KMapMusic.obj
 0001:000806cb       ??0KLadder@@QAE@XZ         100816cb f   KLadder.obj
 0001:000806fd       ??1KLadder@@QAE@XZ         100816fd f   KLadder.obj
 0001:0008072c       ?Init@KLadder@@QAEHPAXI@Z  1008172c f   KLadder.obj
 0001:00080770       ?TopTenFacMasterHand@KLadder@@QAEPBUTRoleList@@H@Z 10081770 f   KLadder.obj
 0001:000807aa       ?TopTenFacRich@KLadder@@QAEPBUTRoleList@@H@Z 100817aa f   KLadder.obj
 0001:000807e4       ?TopTenKiller@KLadder@@QAEPBUTRoleList@@XZ 100817e4 f   KLadder.obj
 0001:000807fe       ?TopTenMasterHand@KLadder@@QAEPBUTRoleList@@XZ 100817fe f   KLadder.obj
 0001:00080818       ?TopTenRich@KLadder@@QAEPBUTRoleList@@XZ 10081818 f   KLadder.obj
 0001:0008082d       ?GetFacMasterHandPercent@KLadder@@QAEHH@Z 1008182d f   KLadder.obj
 0001:0008085e       ?GetFacMoneyPercent@KLadder@@QAEHH@Z 1008185e f   KLadder.obj
 0001:0008088f       ?GetFacMemberCount@KLadder@@QAEHH@Z 1008188f f   KLadder.obj
 0001:000808c0       ?GetTopTen@KLadder@@QAEPBUTRoleList@@K@Z 100818c0 f   KLadder.obj
 0001:00080940       _MulDiv@12                 10081940 f   kernel32:KERNEL32.dll
 0001:00080946       _GetLocalTime@4            10081946 f   kernel32:KERNEL32.dll
 0001:0008094c       _GetTickCount@0            1008194c f   kernel32:KERNEL32.dll
 0001:00080952       _FileTimeToSystemTime@8    10081952 f   kernel32:KERNEL32.dll
 0001:00080958       _LocalFileTimeToFileTime@8 10081958 f   kernel32:KERNEL32.dll
 0001:0008095e       _SystemTimeToFileTime@8    1008195e f   kernel32:KERNEL32.dll
 0001:00080964       _LeaveCriticalSection@4    10081964 f   kernel32:KERNEL32.dll
 0001:0008096a       _EnterCriticalSection@4    1008196a f   kernel32:KERNEL32.dll
 0001:00080970       _ResetEvent@4              10081970 f   kernel32:KERNEL32.dll
 0001:00080976       _CloseHandle@4             10081976 f   kernel32:KERNEL32.dll
 0001:0008097c       _DeleteCriticalSection@4   1008197c f   kernel32:KERNEL32.dll
 0001:00080982       _CreateThread@24           10081982 f   kernel32:KERNEL32.dll
 0001:00080988       _InitializeCriticalSection@4 10081988 f   kernel32:KERNEL32.dll
 0001:0008098e       _CreateEventA@16           1008198e f   kernel32:KERNEL32.dll
 0001:00080994       _OutputDebugStringA@4      10081994 f   kernel32:KERNEL32.dll
 0001:0008099a       _WaitForSingleObject@8     1008199a f   kernel32:KERNEL32.dll
 0001:000809a0       _GetExitCodeThread@8       100819a0 f   kernel32:KERNEL32.dll
 0001:000809a6       _SetEvent@4                100819a6 f   kernel32:KERNEL32.dll
 0001:000809ac       _lua_tostring              100819ac f   lualibdll:LuaLibDll.dll
 0001:000809b2       _lua_isstring              100819b2 f   lualibdll:LuaLibDll.dll
 0001:000809b8       _lua_tonumber              100819b8 f   lualibdll:LuaLibDll.dll
 0001:000809be       _lua_isnumber              100819be f   lualibdll:LuaLibDll.dll
 0001:000809c4       _lua_typename              100819c4 f   lualibdll:LuaLibDll.dll
 0001:000809ca       _lua_gettop                100819ca f   lualibdll:LuaLibDll.dll
 0001:000809d0       _lua_pushnumber            100819d0 f   lualibdll:LuaLibDll.dll
 0001:000809d6       _lua_type                  100819d6 f   lualibdll:LuaLibDll.dll
 0001:000809dc       _lua_getglobal             100819dc f   lualibdll:LuaLibDll.dll
 0001:000809e2       _lua_rawget                100819e2 f   lualibdll:LuaLibDll.dll
 0001:000809e8       _lua_dofile                100819e8 f   lualibdll:LuaLibDll.dll
 0001:000809ee       _lua_pushnil               100819ee f   lualibdll:LuaLibDll.dll
 0001:000809f4       _timeGetTime@0             100819f4 f   Winmm:WINMM.dll
 0001:000809fa       ?g_FileName2Id@@YAKPAD@Z   100819fa f   engine:Engine.dll
 0001:00080a00       ?GetString@KTabFile@@UAEHHPAD00KH@Z 10081a00 f   engine:Engine.dll
 0001:00080a06       ?GetInteger@KTabFile@@UAEHHPADHPAHH@Z 10081a06 f   engine:Engine.dll
 0001:00080a0c       ??1KTabFile@@UAE@XZ        10081a0c f   engine:Engine.dll
 0001:00080a12       ?g_DebugLog@@YAXPADZZ      10081a12 f   engine:Engine.dll
 0001:00080a18       ?Load@KTabFile@@UAEHPAD@Z  10081a18 f   engine:Engine.dll
 0001:00080a1e       ??0KTabFile@@QAE@XZ        10081a1e f   engine:Engine.dll
 0001:00080a24       ??1KLinkArray@@QAE@XZ      10081a24 f   engine:Engine.dll
 0001:00080a2a       ??0KLinkArray@@QAE@XZ      10081a2a f   engine:Engine.dll
 0001:00080a30       ?KSG_StringSkipSymbol@@YA_NPAPBDH@Z 10081a30 f   engine:Engine.dll
 0001:00080a36       ?KSG_StringGetInt@@YAHPAPBDH@Z 10081a36 f   engine:Engine.dll
 0001:00080a3c       ?g_AssertFailed@@YAXPADH@Z 10081a3c f   engine:Engine.dll
 0001:00080a42       ?g_Random@@YAII@Z          10081a42 f   engine:Engine.dll
 0001:00080a48       ?g_StrCpy@@YAXPADPBD@Z     10081a48 f   engine:Engine.dll
 0001:00080a4e       ?Play@KWavSound@@QAEXHHH@Z 10081a4e f   engine:Engine.dll
 0001:00080a54       ?GetNode@KCache@@UAEPAVKCacheNode@@PADPAV2@@Z 10081a54 f   engine:Engine.dll
 0001:00080a5a       ?Stop@KWavSound@@QAEXXZ    10081a5a f   engine:Engine.dll
 0001:00080a60       ?Insert@KLinkArray@@QAEXH@Z 10081a60 f   engine:Engine.dll
 0001:00080a66       ?Init@KLinkArray@@QAEXH@Z  10081a66 f   engine:Engine.dll
 0001:00080a6c       ?GetNext@KLinkArray@@QBEHH@Z 10081a6c f   engine:Engine.dll
 0001:00080a72       ?Remove@KLinkArray@@QAEXH@Z 10081a72 f   engine:Engine.dll
 0001:00080a78       ?GetHeight@KTabFile@@UAEHXZ 10081a78 f   engine:Engine.dll
 0001:00080a7e       ?SafeCallEnd@KLuaScript@@QAEXH@Z 10081a7e f   engine:Engine.dll
 0001:00080a84       ?SafeCallBegin@KLuaScript@@QAEXPAH@Z 10081a84 f   engine:Engine.dll
 0001:00080a8a       ??1KLuaScript@@UAE@XZ      10081a8a f   engine:Engine.dll
 0001:00080a90       ?Load@KLuaScript@@UAEHPAD@Z 10081a90 f   engine:Engine.dll
 0001:00080a96       ?Init@KLuaScript@@UAEHXZ   10081a96 f   engine:Engine.dll
 0001:00080a9c       ??0KLuaScript@@QAE@XZ      10081a9c f   engine:Engine.dll
 0001:00080aa2       ?g_SetFilePath@@YAXPAD@Z   10081aa2 f   engine:Engine.dll
 0001:00080aa8       ?GetString@KIniFile@@QAEHPBD00PADK@Z 10081aa8 f   engine:Engine.dll
 0001:00080aae       ??1KIniFile@@QAE@XZ        10081aae f   engine:Engine.dll
 0001:00080ab4       ?Load@KIniFile@@QAEHPBD@Z  10081ab4 f   engine:Engine.dll
 0001:00080aba       ??0KIniFile@@QAE@XZ        10081aba f   engine:Engine.dll
 0001:00080ac0       ?g_StrCpyLen@@YAXPADPBDH@Z 10081ac0 f   engine:Engine.dll
 0001:00080ac6       ?g_StrLen@@YAHPBD@Z        10081ac6 f   engine:Engine.dll
 0001:00080acc       _TGetEncodedTextLineCount  10081acc f   engine:Engine.dll
 0001:00080ad2       _TGetLimitLenEncodedString 10081ad2 f   engine:Engine.dll
 0001:00080ad8       ?GetInteger@KTabFile@@UAEHHHHPAH@Z 10081ad8 f   engine:Engine.dll
 0001:00080ade       ?GetString@KTabFile@@UAEHHHPAD0K@Z 10081ade f   engine:Engine.dll
 0001:00080ae4       ?IsPlaying@KWavSound@@QAEHXZ 10081ae4 f   engine:Engine.dll
 0001:00080aea       ?FindColumn@KTabFile@@UAEHPAD@Z 10081aea f   engine:Engine.dll
 0001:00080af0       ?GetWidth@KTabFile@@UAEHXZ 10081af0 f   engine:Engine.dll
 0001:00080af6       ?g_StrCat@@YAXPADPBD@Z     10081af6 f   engine:Engine.dll
 0001:00080afc       ?g_UnitePathAndName@@YAXPAD00@Z 10081afc f   engine:Engine.dll
 0001:00080b02       ?FindRow@KTabFile@@UAEHPAD@Z 10081b02 f   engine:Engine.dll
 0001:00080b08       ?IsSectionExist@KIniFile@@QAEHPBD@Z 10081b08 f   engine:Engine.dll
 0001:00080b0e       ?Clear@KIniFile@@QAEXXZ    10081b0e f   engine:Engine.dll
 0001:00080b14       ?GetInteger@KIniFile@@QAEHPBD0HPAH@Z 10081b14 f   engine:Engine.dll
 0001:00080b1a       ?g_StrCmp@@YAHPBD0@Z       10081b1a f   engine:Engine.dll
 0001:00080b20       ?g_StrLower@@YAXPAD@Z      10081b20 f   engine:Engine.dll
 0001:00080b26       ?SetGlobalName@KLuaScript@@QAEXPAD@Z 10081b26 f   engine:Engine.dll
 0001:00080b2c       ?SetScriptName@KLuaScript@@UAEXPAD@Z 10081b2c f   engine:Engine.dll
 0001:00080b32       ?RegisterFunction@KLuaScript@@UAEHPADPAX@Z 10081b32 f   engine:Engine.dll
 0001:00080b38       ?CallFunction@KLuaScript@@UAAHPADH0ZZ 10081b38 f   engine:Engine.dll
 0001:00080b3e       ?Execute@KLuaScript@@UAEHXZ 10081b3e f   engine:Engine.dll
 0001:00080b44       ?Compile@KLuaScript@@UAEHPAD@Z 10081b44 f   engine:Engine.dll
 0001:00080b4a       ?Exit@KLuaScript@@UAEXXZ   10081b4a f   engine:Engine.dll
 0001:00080b50       ?ExecuteCode@KLuaScript@@QAEHXZ 10081b50 f   engine:Engine.dll
 0001:00080b56       ?LoadBuffer@KLuaScript@@QAEHPAEK@Z 10081b56 f   engine:Engine.dll
 0001:00080b5c       ?RegisterFunctions@KLuaScript@@QAEHQAUTLua_Funcs@@H@Z 10081b5c f   engine:Engine.dll
 0001:00080b62       _TEncodeText               10081b62 f   engine:Engine.dll
 0001:00080b68       ?Save@KIniFile@@QAEHPBD@Z  10081b68 f   engine:Engine.dll
 0001:00080b6e       ?WriteInteger@KIniFile@@QAEXPBD0H@Z 10081b6e f   engine:Engine.dll
 0001:00080b74       ?WriteString@KIniFile@@QAEXPBD00@Z 10081b74 f   engine:Engine.dll
 0001:00080b7a       ?g_CreatePath@@YAXPAD@Z    10081b7a f   engine:Engine.dll
 0001:00080b80       ?g_SetRootPath@@YAXPAD@Z   10081b80 f   engine:Engine.dll
 0001:00080b86       ?g_RandomSeed@@YAXI@Z      10081b86 f   engine:Engine.dll
 0001:00080b8c       ??0KPolygon@@QAE@XZ        10081b8c f   engine:Engine.dll
 0001:00080b92       ?Clear@KPolygon@@QAEXXZ    10081b92 f   engine:Engine.dll
 0001:00080b98       ?SetVolume@KWavSound@@QAEXH@Z 10081b98 f   engine:Engine.dll
 0001:00080b9e       ?SetPan@KWavSound@@QAEXH@Z 10081b9e f   engine:Engine.dll
 0001:00080ba4       ?IsPointInPolygon@KPolygon@@QAEHUtagPOINT@@@Z 10081ba4 f   engine:Engine.dll
 0001:00080baa       ?GetCenterPos@KPolygon@@QAEXPAUtagPOINT@@@Z 10081baa f   engine:Engine.dll
 0001:00080bb0       ?Read@KPakFile@@QAEKPAXI@Z 10081bb0 f   engine:Engine.dll
 0001:00080bb6       ?Close@KPakFile@@QAEXXZ    10081bb6 f   engine:Engine.dll
 0001:00080bbc       ?Size@KPakFile@@QAEKXZ     10081bbc f   engine:Engine.dll
 0001:00080bc2       ??1KPakFile@@QAE@XZ        10081bc2 f   engine:Engine.dll
 0001:00080bc8       ?Open@KPakFile@@QAEHPBD@Z  10081bc8 f   engine:Engine.dll
 0001:00080bce       ??0KPakFile@@QAE@XZ        10081bce f   engine:Engine.dll
 0001:00080bd4       ?Seek@KPakFile@@QAEKHI@Z   10081bd4 f   engine:Engine.dll
 0001:00080bda       ??0KSoundCache@@QAE@XZ     10081bda f   engine:Engine.dll
 0001:00080be0       ??1KSoundCache@@QAE@XZ     10081be0 f   engine:Engine.dll
 0001:00080be6       ?Init@KCache@@UAEXH@Z      10081be6 f   engine:Engine.dll
 0001:00080bec       ?g_FindDebugWindow@@YAPAUHWND__@@PAD0@Z 10081bec f   engine:Engine.dll
 0001:00080bf2       ??0KTimer@@QAE@XZ          10081bf2 f   engine:Engine.dll
 0001:00080bf8       ??0KScriptList@@QAE@XZ     10081bf8 f   engine:Engine.dll
 0001:00080bfe       ??1KScriptList@@QAE@XZ     10081bfe f   engine:Engine.dll
 0001:00080c04       ?g_GetRootPath@@YAXPAD@Z   10081c04 f   engine:Engine.dll
 0001:00080c0a       ?GetNextKey@KIniFile@@QAEHPBD0PAD@Z 10081c0a f   engine:Engine.dll
 0001:00080c10       ?g_GetFullPath@@YAXPAD0@Z  10081c10 f   engine:Engine.dll
 0001:00080c16       ?GetString@KTabFile@@UAEHPAD000K@Z 10081c16 f   engine:Engine.dll
 0001:00080c1c       ?GetRect@KIniFile@@QAEXPBD0PAUtagRECT@@@Z 10081c1c f   engine:Engine.dll
 0001:00080c22       ?Tell@KPakFile@@QAEKXZ     10081c22 f   engine:Engine.dll
 0001:00080c28       ?GetInteger2@KIniFile@@QAEXPBD0PAH1@Z 10081c28 f   engine:Engine.dll
 0001:00080c2e       ?g_FileExists@@YAHPAD@Z    10081c2e f   engine:Engine.dll
 0001:00080c34       ?get_jpg_image@@YAPAUKSGImageContent@@QBDI@Z 10081c34 f   engine:Engine.dll
 0001:00080c3a       ?release_image@@YAXPAUKSGImageContent@@@Z 10081c3a f   engine:Engine.dll
 0001:00080c40       __chkesp                   10081c40 f   MSVCRTD:MSVCRTD.dll
 0001:00080c46       ??3@YAXPAX@Z               10081c46 f   MSVCRTD:MSVCRTD.dll
 0001:00080c4c       __purecall                 10081c4c f   MSVCRTD:MSVCRTD.dll
 0001:00080c52       __CrtDbgReport             10081c52 f   MSVCRTD:MSVCRTD.dll
 0001:00080c58       _strcpy                    10081c58 f   MSVCRTD:MSVCRTD.dll
 0001:00080c5e       ___CxxFrameHandler         10081c5e f   MSVCRTD:MSVCRTD.dll
 0001:00080c70       ??_L@YGXPAXIHP6EX0@Z1@Z    10081c70 f   MSVCRTD:ehvecctr.obj
 0001:00080d10       __onexit                   10081d10 f   MSVCRTD:atonexit.obj
 0001:00080d50       _atexit                    10081d50 f   MSVCRTD:atonexit.obj
 0001:00080d70       ??_M@YGXPAXIHP6EX0@Z@Z     10081d70 f   MSVCRTD:ehvecdtr.obj
 0001:00080e20       ?__ArrayUnwind@@YGXPAXIHP6EX0@Z@Z 10081e20 f   MSVCRTD:ehvecdtr.obj
 0001:00080ecc       _sprintf                   10081ecc f   MSVCRTD:MSVCRTD.dll
 0001:00080ed2       ??2@YAPAXI@Z               10081ed2 f   MSVCRTD:MSVCRTD.dll
 0001:00080ed8       _sqrt                      10081ed8 f   MSVCRTD:MSVCRTD.dll
 0001:00080ede       __ftol                     10081ede f   MSVCRTD:MSVCRTD.dll
 0001:00080ee4       _abs                       10081ee4 f   MSVCRTD:MSVCRTD.dll
 0001:00080eea       _memset                    10081eea f   MSVCRTD:MSVCRTD.dll
 0001:00080ef0       _printf                    10081ef0 f   MSVCRTD:MSVCRTD.dll
 0001:00080ef6       _strcmp                    10081ef6 f   MSVCRTD:MSVCRTD.dll
 0001:00080efc       _strcat                    10081efc f   MSVCRTD:MSVCRTD.dll
 0001:00080f02       _memcpy                    10081f02 f   MSVCRTD:MSVCRTD.dll
 0001:00080f08       _strlen                    10081f08 f   MSVCRTD:MSVCRTD.dll
 0001:00080f0e       _strncpy                   10081f0e f   MSVCRTD:MSVCRTD.dll
 0001:00080f14       _atoi                      10081f14 f   MSVCRTD:MSVCRTD.dll
 0001:00080f1a       _free                      10081f1a f   MSVCRTD:MSVCRTD.dll
 0001:00080f20       _strstr                    10081f20 f   MSVCRTD:MSVCRTD.dll
 0001:00080f26       _malloc                    10081f26 f   MSVCRTD:MSVCRTD.dll
 0001:00080f30       __chkstk                   10081f30 f   MSVCRTD:chkstk.obj
 0001:00080f30       __alloca_probe             10081f30 f   MSVCRTD:chkstk.obj
 0001:00080f60       _ctime                     10081f60 f   MSVCRTD:MSVCRTD.dll
 0001:00080f66       _srand                     10081f66 f   MSVCRTD:MSVCRTD.dll
 0001:00080f6c       _time                      10081f6c f   MSVCRTD:MSVCRTD.dll
 0001:00080f72       __findclose                10081f72 f   MSVCRTD:MSVCRTD.dll
 0001:00080f78       __strupr                   10081f78 f   MSVCRTD:MSVCRTD.dll
 0001:00080f7e       __findnext                 10081f7e f   MSVCRTD:MSVCRTD.dll
 0001:00080f84       __findfirst                10081f84 f   MSVCRTD:MSVCRTD.dll
 0001:00080f8a       _realloc                   10081f8a f   MSVCRTD:MSVCRTD.dll
 0001:00080f90       _fabs                      10081f90 f   MSVCRTD:MSVCRTD.dll
 0001:00080f96       _strchr                    10081f96 f   MSVCRTD:MSVCRTD.dll
 0001:00080f9c       _atof                      10081f9c f   MSVCRTD:MSVCRTD.dll
 0001:00080fb0       __CRT_INIT@12              10081fb0 f   MSVCRTD:crtdll.obj
 0001:000810c0       __DllMainCRTStartup@12     100820c0 f   MSVCRTD:crtdll.obj
 0001:000811b4       __except_handler3          100821b4 f   MSVCRTD:MSVCRTD.dll
 0001:000811ba       ___dllonexit               100821ba f   MSVCRTD:MSVCRTD.dll
 0001:000811c0       ?terminate@@YAXXZ          100821c0 f   MSVCRTD:MSVCRTD.dll
 0001:000811c6       __free_dbg                 100821c6 f   MSVCRTD:MSVCRTD.dll
 0001:000811cc       __initterm                 100821cc f   MSVCRTD:MSVCRTD.dll
 0001:000811d2       __malloc_dbg               100821d2 f   MSVCRTD:MSVCRTD.dll
 0001:000811e0       _DllMain@12                100821e0 f   MSVCRTD:dllmain.obj
 0001:00081210       ?size@?$basic_string@DU?$char_traits@D@std@@V?$allocator@D@2@@std@@QBEIXZ 10082210 f   msvcprtd:MSVCP60D.dll
 0001:00081216       ?empty@?$basic_string@DU?$char_traits@D@std@@V?$allocator@D@2@@std@@QBE_NXZ 10082216 f   msvcprtd:MSVCP60D.dll
 0001:0008121c       ?c_str@?$basic_string@DU?$char_traits@D@std@@V?$allocator@D@2@@std@@QBEPBDXZ 1008221c f   msvcprtd:MSVCP60D.dll
 0001:00081222       ??1?$basic_string@DU?$char_traits@D@std@@V?$allocator@D@2@@std@@QAE@XZ 10082222 f   msvcprtd:MSVCP60D.dll
 0001:00081228       ??0?$basic_string@DU?$char_traits@D@std@@V?$allocator@D@2@@std@@QAE@PBDABV?$allocator@D@1@@Z 10082228 f   msvcprtd:MSVCP60D.dll
 0001:0008122e       ??0?$basic_string@DU?$char_traits@D@std@@V?$allocator@D@2@@std@@QAE@ABV?$allocator@D@1@@Z 1008222e f   msvcprtd:MSVCP60D.dll
 0001:00081234       ?end@?$basic_string@DU?$char_traits@D@std@@V?$allocator@D@2@@std@@QBEPBDXZ 10082234 f   msvcprtd:MSVCP60D.dll
 0001:0008123a       ?assign@?$basic_string@DU?$char_traits@D@std@@V?$allocator@D@2@@std@@QAEAAV12@PBD0@Z 1008223a f   msvcprtd:MSVCP60D.dll
 0001:00081240       ?begin@?$basic_string@DU?$char_traits@D@std@@V?$allocator@D@2@@std@@QBEPBDXZ 10082240 f   msvcprtd:MSVCP60D.dll
 0001:00081246       ?assign@?$basic_string@DU?$char_traits@D@std@@V?$allocator@D@2@@std@@QAEAAV12@ABV12@@Z 10082246 f   msvcprtd:MSVCP60D.dll
 0001:0008124c       ?resize@?$basic_string@DU?$char_traits@D@std@@V?$allocator@D@2@@std@@QAEXI@Z 1008224c f   msvcprtd:MSVCP60D.dll
 0001:00081252       ?find@?$basic_string@DU?$char_traits@D@std@@V?$allocator@D@2@@std@@QBEIDI@Z 10082252 f   msvcprtd:MSVCP60D.dll
 0001:00081258       _DisableThreadLibraryCalls@4 10082258 f   kernel32:KERNEL32.dll
 0001:0008125e       __strlwr                   1008225e f   MSVCRTD:MSVCRTD.dll
 0001:00081264       __getcwd                   10082264 f   MSVCRTD:MSVCRTD.dll
 0001:0008126a       __chdir                    1008226a f   MSVCRTD:MSVCRTD.dll
 0001:00081270       __itoa                     10082270 f   MSVCRTD:MSVCRTD.dll
 0002:00000000       __imp_?WriteInteger@KIniFile@@QAEXPBD0H@Z 10084000     engine:Engine.dll
 0002:00000004       __imp_?Init@KCache@@UAEXH@Z 10084004     engine:Engine.dll
 0002:00000008       __imp_??1KSoundCache@@QAE@XZ 10084008     engine:Engine.dll
 0002:0000000c       __imp_??0KSoundCache@@QAE@XZ 1008400c     engine:Engine.dll
 0002:00000010       __imp_?Seek@KPakFile@@QAEKHI@Z 10084010     engine:Engine.dll
 0002:00000014       __imp_??0KPakFile@@QAE@XZ  10084014     engine:Engine.dll
 0002:00000018       __imp_?Open@KPakFile@@QAEHPBD@Z 10084018     engine:Engine.dll
 0002:0000001c       __imp_??1KPakFile@@QAE@XZ  1008401c     engine:Engine.dll
 0002:00000020       __imp_?Size@KPakFile@@QAEKXZ 10084020     engine:Engine.dll
 0002:00000024       __imp_?Close@KPakFile@@QAEXXZ 10084024     engine:Engine.dll
 0002:00000028       __imp_?Read@KPakFile@@QAEKPAXI@Z 10084028     engine:Engine.dll
 0002:0000002c       __imp_?GetCenterPos@KPolygon@@QAEXPAUtagPOINT@@@Z 1008402c     engine:Engine.dll
 0002:00000030       __imp_?IsPointInPolygon@KPolygon@@QAEHUtagPOINT@@@Z 10084030     engine:Engine.dll
 0002:00000034       __imp_?SetPan@KWavSound@@QAEXH@Z 10084034     engine:Engine.dll
 0002:00000038       __imp_?SetVolume@KWavSound@@QAEXH@Z 10084038     engine:Engine.dll
 0002:0000003c       __imp_?Clear@KPolygon@@QAEXXZ 1008403c     engine:Engine.dll
 0002:00000040       __imp_??0KPolygon@@QAE@XZ  10084040     engine:Engine.dll
 0002:00000044       __imp_?g_RandomSeed@@YAXI@Z 10084044     engine:Engine.dll
 0002:00000048       __imp_?g_SetRootPath@@YAXPAD@Z 10084048     engine:Engine.dll
 0002:0000004c       __imp_?g_CreatePath@@YAXPAD@Z 1008404c     engine:Engine.dll
 0002:00000050       __imp_?release_image@@YAXPAUKSGImageContent@@@Z 10084050     engine:Engine.dll
 0002:00000054       __imp_?get_jpg_image@@YAPAUKSGImageContent@@QBDI@Z 10084054     engine:Engine.dll
 0002:00000058       __imp_?g_FileExists@@YAHPAD@Z 10084058     engine:Engine.dll
 0002:0000005c       __imp_?GetInteger2@KIniFile@@QAEXPBD0PAH1@Z 1008405c     engine:Engine.dll
 0002:00000060       __imp_?Tell@KPakFile@@QAEKXZ 10084060     engine:Engine.dll
 0002:00000064       __imp_?GetRect@KIniFile@@QAEXPBD0PAUtagRECT@@@Z 10084064     engine:Engine.dll
 0002:00000068       __imp_?GetString@KTabFile@@UAEHPAD000K@Z 10084068     engine:Engine.dll
 0002:0000006c       __imp_?g_GetFullPath@@YAXPAD0@Z 1008406c     engine:Engine.dll
 0002:00000070       __imp_?GetNextKey@KIniFile@@QAEHPBD0PAD@Z 10084070     engine:Engine.dll
 0002:00000074       __imp_?g_GetRootPath@@YAXPAD@Z 10084074     engine:Engine.dll
 0002:00000078       __imp_??1KScriptList@@QAE@XZ 10084078     engine:Engine.dll
 0002:0000007c       __imp_??0KScriptList@@QAE@XZ 1008407c     engine:Engine.dll
 0002:00000080       __imp_??0KTimer@@QAE@XZ    10084080     engine:Engine.dll
 0002:00000084       __imp_?g_FileName2Id@@YAKPAD@Z 10084084     engine:Engine.dll
 0002:00000088       __imp_?GetString@KTabFile@@UAEHHPAD00KH@Z 10084088     engine:Engine.dll
 0002:0000008c       __imp_?GetInteger@KTabFile@@UAEHHPADHPAHH@Z 1008408c     engine:Engine.dll
 0002:00000090       __imp_??1KTabFile@@UAE@XZ  10084090     engine:Engine.dll
 0002:00000094       __imp_?g_DebugLog@@YAXPADZZ 10084094     engine:Engine.dll
 0002:00000098       __imp_?Load@KTabFile@@UAEHPAD@Z 10084098     engine:Engine.dll
 0002:0000009c       __imp_??0KTabFile@@QAE@XZ  1008409c     engine:Engine.dll
 0002:000000a0       __imp_??1KLinkArray@@QAE@XZ 100840a0     engine:Engine.dll
 0002:000000a4       __imp_??0KLinkArray@@QAE@XZ 100840a4     engine:Engine.dll
 0002:000000a8       __imp_?KSG_StringSkipSymbol@@YA_NPAPBDH@Z 100840a8     engine:Engine.dll
 0002:000000ac       __imp_?KSG_StringGetInt@@YAHPAPBDH@Z 100840ac     engine:Engine.dll
 0002:000000b0       __imp_?g_AssertFailed@@YAXPADH@Z 100840b0     engine:Engine.dll
 0002:000000b4       __imp_?g_Random@@YAII@Z    100840b4     engine:Engine.dll
 0002:000000b8       __imp_?g_StrCpy@@YAXPADPBD@Z 100840b8     engine:Engine.dll
 0002:000000bc       __imp_?Play@KWavSound@@QAEXHHH@Z 100840bc     engine:Engine.dll
 0002:000000c0       __imp_?GetNode@KCache@@UAEPAVKCacheNode@@PADPAV2@@Z 100840c0     engine:Engine.dll
 0002:000000c4       __imp_?Stop@KWavSound@@QAEXXZ 100840c4     engine:Engine.dll
 0002:000000c8       __imp_?Insert@KLinkArray@@QAEXH@Z 100840c8     engine:Engine.dll
 0002:000000cc       __imp_?Init@KLinkArray@@QAEXH@Z 100840cc     engine:Engine.dll
 0002:000000d0       __imp_?GetNext@KLinkArray@@QBEHH@Z 100840d0     engine:Engine.dll
 0002:000000d4       __imp_?Remove@KLinkArray@@QAEXH@Z 100840d4     engine:Engine.dll
 0002:000000d8       __imp_?GetHeight@KTabFile@@UAEHXZ 100840d8     engine:Engine.dll
 0002:000000dc       __imp_?SafeCallEnd@KLuaScript@@QAEXH@Z 100840dc     engine:Engine.dll
 0002:000000e0       __imp_?SafeCallBegin@KLuaScript@@QAEXPAH@Z 100840e0     engine:Engine.dll
 0002:000000e4       __imp_??1KLuaScript@@UAE@XZ 100840e4     engine:Engine.dll
 0002:000000e8       __imp_?Load@KLuaScript@@UAEHPAD@Z 100840e8     engine:Engine.dll
 0002:000000ec       __imp_?Init@KLuaScript@@UAEHXZ 100840ec     engine:Engine.dll
 0002:000000f0       __imp_??0KLuaScript@@QAE@XZ 100840f0     engine:Engine.dll
 0002:000000f4       __imp_?g_SetFilePath@@YAXPAD@Z 100840f4     engine:Engine.dll
 0002:000000f8       __imp_?GetString@KIniFile@@QAEHPBD00PADK@Z 100840f8     engine:Engine.dll
 0002:000000fc       __imp_??1KIniFile@@QAE@XZ  100840fc     engine:Engine.dll
 0002:00000100       __imp_?Load@KIniFile@@QAEHPBD@Z 10084100     engine:Engine.dll
 0002:00000104       __imp_??0KIniFile@@QAE@XZ  10084104     engine:Engine.dll
 0002:00000108       __imp_?g_StrCpyLen@@YAXPADPBDH@Z 10084108     engine:Engine.dll
 0002:0000010c       __imp_?g_StrLen@@YAHPBD@Z  1008410c     engine:Engine.dll
 0002:00000110       __imp__TGetEncodedTextLineCount 10084110     engine:Engine.dll
 0002:00000114       __imp__TGetLimitLenEncodedString 10084114     engine:Engine.dll
 0002:00000118       __imp_?GetInteger@KTabFile@@UAEHHHHPAH@Z 10084118     engine:Engine.dll
 0002:0000011c       __imp_?GetString@KTabFile@@UAEHHHPAD0K@Z 1008411c     engine:Engine.dll
 0002:00000120       __imp_?IsPlaying@KWavSound@@QAEHXZ 10084120     engine:Engine.dll
 0002:00000124       __imp_?FindColumn@KTabFile@@UAEHPAD@Z 10084124     engine:Engine.dll
 0002:00000128       __imp_?GetWidth@KTabFile@@UAEHXZ 10084128     engine:Engine.dll
 0002:0000012c       __imp_?g_StrCat@@YAXPADPBD@Z 1008412c     engine:Engine.dll
 0002:00000130       __imp_?g_UnitePathAndName@@YAXPAD00@Z 10084130     engine:Engine.dll
 0002:00000134       __imp_?FindRow@KTabFile@@UAEHPAD@Z 10084134     engine:Engine.dll
 0002:00000138       __imp_?IsSectionExist@KIniFile@@QAEHPBD@Z 10084138     engine:Engine.dll
 0002:0000013c       __imp_?Clear@KIniFile@@QAEXXZ 1008413c     engine:Engine.dll
 0002:00000140       __imp_?GetInteger@KIniFile@@QAEHPBD0HPAH@Z 10084140     engine:Engine.dll
 0002:00000144       __imp_?g_StrCmp@@YAHPBD0@Z 10084144     engine:Engine.dll
 0002:00000148       __imp_?g_StrLower@@YAXPAD@Z 10084148     engine:Engine.dll
 0002:0000014c       __imp_?SetGlobalName@KLuaScript@@QAEXPAD@Z 1008414c     engine:Engine.dll
 0002:00000150       __imp_?SetScriptName@KLuaScript@@UAEXPAD@Z 10084150     engine:Engine.dll
 0002:00000154       __imp_?RegisterFunction@KLuaScript@@UAEHPADPAX@Z 10084154     engine:Engine.dll
 0002:00000158       __imp_?CallFunction@KLuaScript@@UAAHPADH0ZZ 10084158     engine:Engine.dll
 0002:0000015c       __imp_?Execute@KLuaScript@@UAEHXZ 1008415c     engine:Engine.dll
 0002:00000160       __imp_?Compile@KLuaScript@@UAEHPAD@Z 10084160     engine:Engine.dll
 0002:00000164       __imp_?Exit@KLuaScript@@UAEXXZ 10084164     engine:Engine.dll
 0002:00000168       __imp_?ExecuteCode@KLuaScript@@QAEHXZ 10084168     engine:Engine.dll
 0002:0000016c       __imp_?LoadBuffer@KLuaScript@@QAEHPAEK@Z 1008416c     engine:Engine.dll
 0002:00000170       __imp_?RegisterFunctions@KLuaScript@@QAEHQAUTLua_Funcs@@H@Z 10084170     engine:Engine.dll
 0002:00000174       __imp__TEncodeText         10084174     engine:Engine.dll
 0002:00000178       __imp_?Save@KIniFile@@QAEHPBD@Z 10084178     engine:Engine.dll
 0002:0000017c       __imp_?WriteString@KIniFile@@QAEXPBD00@Z 1008417c     engine:Engine.dll
 0002:00000180       __imp_?g_FindDebugWindow@@YAPAUHWND__@@PAD0@Z 10084180     engine:Engine.dll
 0002:00000184       \177Engine_NULL_THUNK_DATA 10084184     engine:Engine.dll
 0002:00000188       __imp__DisableThreadLibraryCalls@4 10084188     kernel32:KERNEL32.dll
 0002:0000018c       __imp__SetEvent@4          1008418c     kernel32:KERNEL32.dll
 0002:00000190       __imp__GetExitCodeThread@8 10084190     kernel32:KERNEL32.dll
 0002:00000194       __imp__WaitForSingleObject@8 10084194     kernel32:KERNEL32.dll
 0002:00000198       __imp__OutputDebugStringA@4 10084198     kernel32:KERNEL32.dll
 0002:0000019c       __imp__CreateEventA@16     1008419c     kernel32:KERNEL32.dll
 0002:000001a0       __imp__InitializeCriticalSection@4 100841a0     kernel32:KERNEL32.dll
 0002:000001a4       __imp__CreateThread@24     100841a4     kernel32:KERNEL32.dll
 0002:000001a8       __imp__DeleteCriticalSection@4 100841a8     kernel32:KERNEL32.dll
 0002:000001ac       __imp__CloseHandle@4       100841ac     kernel32:KERNEL32.dll
 0002:000001b0       __imp__ResetEvent@4        100841b0     kernel32:KERNEL32.dll
 0002:000001b4       __imp__EnterCriticalSection@4 100841b4     kernel32:KERNEL32.dll
 0002:000001b8       __imp__LeaveCriticalSection@4 100841b8     kernel32:KERNEL32.dll
 0002:000001bc       __imp__SystemTimeToFileTime@8 100841bc     kernel32:KERNEL32.dll
 0002:000001c0       __imp__LocalFileTimeToFileTime@8 100841c0     kernel32:KERNEL32.dll
 0002:000001c4       __imp__FileTimeToSystemTime@8 100841c4     kernel32:KERNEL32.dll
 0002:000001c8       __imp__GetTickCount@0      100841c8     kernel32:KERNEL32.dll
 0002:000001cc       __imp__GetLocalTime@4      100841cc     kernel32:KERNEL32.dll
 0002:000001d0       __imp__MulDiv@12           100841d0     kernel32:KERNEL32.dll
 0002:000001d4       \177KERNEL32_NULL_THUNK_DATA 100841d4     kernel32:KERNEL32.dll
 0002:000001d8       __imp__lua_tostring        100841d8     lualibdll:LuaLibDll.dll
 0002:000001dc       __imp__lua_tonumber        100841dc     lualibdll:LuaLibDll.dll
 0002:000001e0       __imp__lua_pushnil         100841e0     lualibdll:LuaLibDll.dll
 0002:000001e4       __imp__lua_dofile          100841e4     lualibdll:LuaLibDll.dll
 0002:000001e8       __imp__lua_rawget          100841e8     lualibdll:LuaLibDll.dll
 0002:000001ec       __imp__lua_getglobal       100841ec     lualibdll:LuaLibDll.dll
 0002:000001f0       __imp__lua_type            100841f0     lualibdll:LuaLibDll.dll
 0002:000001f4       __imp__lua_pushnumber      100841f4     lualibdll:LuaLibDll.dll
 0002:000001f8       __imp__lua_gettop          100841f8     lualibdll:LuaLibDll.dll
 0002:000001fc       __imp__lua_typename        100841fc     lualibdll:LuaLibDll.dll
 0002:00000200       __imp__lua_isnumber        10084200     lualibdll:LuaLibDll.dll
 0002:00000204       __imp__lua_isstring        10084204     lualibdll:LuaLibDll.dll
 0002:00000208       \177LuaLibDll_NULL_THUNK_DATA 10084208     lualibdll:LuaLibDll.dll
 0002:0000020c       __imp_?find@?$basic_string@DU?$char_traits@D@std@@V?$allocator@D@2@@std@@QBEIDI@Z 1008420c     msvcprtd:MSVCP60D.dll
 0002:00000210       __imp_?npos@?$basic_string@DU?$char_traits@D@std@@V?$allocator@D@2@@std@@2IB 10084210     msvcprtd:MSVCP60D.dll
 0002:00000214       __imp_?resize@?$basic_string@DU?$char_traits@D@std@@V?$allocator@D@2@@std@@QAEXI@Z 10084214     msvcprtd:MSVCP60D.dll
 0002:00000218       __imp_?assign@?$basic_string@DU?$char_traits@D@std@@V?$allocator@D@2@@std@@QAEAAV12@ABV12@@Z 10084218     msvcprtd:MSVCP60D.dll
 0002:0000021c       __imp_?begin@?$basic_string@DU?$char_traits@D@std@@V?$allocator@D@2@@std@@QBEPBDXZ 1008421c     msvcprtd:MSVCP60D.dll
 0002:00000220       __imp_?assign@?$basic_string@DU?$char_traits@D@std@@V?$allocator@D@2@@std@@QAEAAV12@PBD0@Z 10084220     msvcprtd:MSVCP60D.dll
 0002:00000224       __imp_?end@?$basic_string@DU?$char_traits@D@std@@V?$allocator@D@2@@std@@QBEPBDXZ 10084224     msvcprtd:MSVCP60D.dll
 0002:00000228       __imp_??0?$basic_string@DU?$char_traits@D@std@@V?$allocator@D@2@@std@@QAE@ABV?$allocator@D@1@@Z 10084228     msvcprtd:MSVCP60D.dll
 0002:0000022c       __imp_??0?$basic_string@DU?$char_traits@D@std@@V?$allocator@D@2@@std@@QAE@PBDABV?$allocator@D@1@@Z 1008422c     msvcprtd:MSVCP60D.dll
 0002:00000230       __imp_??1?$basic_string@DU?$char_traits@D@std@@V?$allocator@D@2@@std@@QAE@XZ 10084230     msvcprtd:MSVCP60D.dll
 0002:00000234       __imp_?c_str@?$basic_string@DU?$char_traits@D@std@@V?$allocator@D@2@@std@@QBEPBDXZ 10084234     msvcprtd:MSVCP60D.dll
 0002:00000238       __imp_?empty@?$basic_string@DU?$char_traits@D@std@@V?$allocator@D@2@@std@@QBE_NXZ 10084238     msvcprtd:MSVCP60D.dll
 0002:0000023c       __imp_?size@?$basic_string@DU?$char_traits@D@std@@V?$allocator@D@2@@std@@QBEIXZ 1008423c     msvcprtd:MSVCP60D.dll
 0002:00000240       \177MSVCP60D_NULL_THUNK_DATA 10084240     msvcprtd:MSVCP60D.dll
 0002:00000244       __imp__strcmp              10084244     MSVCRTD:MSVCRTD.dll
 0002:00000248       __imp__strcat              10084248     MSVCRTD:MSVCRTD.dll
 0002:0000024c       __imp__memcpy              1008424c     MSVCRTD:MSVCRTD.dll
 0002:00000250       __imp__strlen              10084250     MSVCRTD:MSVCRTD.dll
 0002:00000254       __imp__strncpy             10084254     MSVCRTD:MSVCRTD.dll
 0002:00000258       __imp__atoi                10084258     MSVCRTD:MSVCRTD.dll
 0002:0000025c       __imp__free                1008425c     MSVCRTD:MSVCRTD.dll
 0002:00000260       __imp__strstr              10084260     MSVCRTD:MSVCRTD.dll
 0002:00000264       __imp__printf              10084264     MSVCRTD:MSVCRTD.dll
 0002:00000268       __imp__ctime               10084268     MSVCRTD:MSVCRTD.dll
 0002:0000026c       __imp___itoa               1008426c     MSVCRTD:MSVCRTD.dll
 0002:0000026c       __imp__itoa                1008426c     MSVCRTD:MSVCRTD.dll
 0002:00000270       __imp__time                10084270     MSVCRTD:MSVCRTD.dll
 0002:00000274       __imp___findclose          10084274     MSVCRTD:MSVCRTD.dll
 0002:00000278       __imp___strupr             10084278     MSVCRTD:MSVCRTD.dll
 0002:0000027c       __imp___findnext           1008427c     MSVCRTD:MSVCRTD.dll
 0002:00000280       __imp___findfirst          10084280     MSVCRTD:MSVCRTD.dll
 0002:00000284       __imp__realloc             10084284     MSVCRTD:MSVCRTD.dll
 0002:00000288       __imp__fabs                10084288     MSVCRTD:MSVCRTD.dll
 0002:0000028c       __imp__strchr              1008428c     MSVCRTD:MSVCRTD.dll
 0002:00000290       __imp__atof                10084290     MSVCRTD:MSVCRTD.dll
 0002:00000294       __imp___except_handler3    10084294     MSVCRTD:MSVCRTD.dll
 0002:00000298       __imp____dllonexit         10084298     MSVCRTD:MSVCRTD.dll
 0002:0000029c       __imp___onexit             1008429c     MSVCRTD:MSVCRTD.dll
 0002:000002a0       __imp_?terminate@@YAXXZ    100842a0     MSVCRTD:MSVCRTD.dll
 0002:000002a4       __imp___free_dbg           100842a4     MSVCRTD:MSVCRTD.dll
 0002:000002a8       __imp___initterm           100842a8     MSVCRTD:MSVCRTD.dll
 0002:000002ac       __imp___malloc_dbg         100842ac     MSVCRTD:MSVCRTD.dll
 0002:000002b0       __imp___adjust_fdiv        100842b0     MSVCRTD:MSVCRTD.dll
 0002:000002b4       __imp__memset              100842b4     MSVCRTD:MSVCRTD.dll
 0002:000002b8       __imp__abs                 100842b8     MSVCRTD:MSVCRTD.dll
 0002:000002bc       __imp___ftol               100842bc     MSVCRTD:MSVCRTD.dll
 0002:000002c0       __imp__sqrt                100842c0     MSVCRTD:MSVCRTD.dll
 0002:000002c4       __imp_??2@YAPAXI@Z         100842c4     MSVCRTD:MSVCRTD.dll
 0002:000002c8       __imp__sprintf             100842c8     MSVCRTD:MSVCRTD.dll
 0002:000002cc       __imp____CxxFrameHandler   100842cc     MSVCRTD:MSVCRTD.dll
 0002:000002d0       __imp__strcpy              100842d0     MSVCRTD:MSVCRTD.dll
 0002:000002d4       __imp___CrtDbgReport       100842d4     MSVCRTD:MSVCRTD.dll
 0002:000002d8       __imp___purecall           100842d8     MSVCRTD:MSVCRTD.dll
 0002:000002dc       __imp_??3@YAXPAX@Z         100842dc     MSVCRTD:MSVCRTD.dll
 0002:000002e0       __imp___chkesp             100842e0     MSVCRTD:MSVCRTD.dll
 0002:000002e4       __imp___chdir              100842e4     MSVCRTD:MSVCRTD.dll
 0002:000002e4       __imp__chdir               100842e4     MSVCRTD:MSVCRTD.dll
 0002:000002e8       __imp__malloc              100842e8     MSVCRTD:MSVCRTD.dll
 0002:000002ec       __imp__srand               100842ec     MSVCRTD:MSVCRTD.dll
 0002:000002f0       __imp___strlwr             100842f0     MSVCRTD:MSVCRTD.dll
 0002:000002f0       __imp__strlwr              100842f0     MSVCRTD:MSVCRTD.dll
 0002:000002f4       __imp___getcwd             100842f4     MSVCRTD:MSVCRTD.dll
 0002:000002f4       __imp__getcwd              100842f4     MSVCRTD:MSVCRTD.dll
 0002:000002f8       \177MSVCRTD_NULL_THUNK_DATA 100842f8     MSVCRTD:MSVCRTD.dll
 0002:000002fc       __imp__timeGetTime@0       100842fc     Winmm:WINMM.dll
 0002:00000300       \177WINMM_NULL_THUNK_DATA  10084300     Winmm:WINMM.dll
 0002:0000032c       ??_7KThiefSkill@@6B@       1008432c     KThiefSkill.obj
 0002:00000370       ??_7ISkill@@6B@            10084370     KThiefSkill.obj
 0002:000003b4       ??_7KMissle@@6B@           100843b4     KMissle.obj
 0002:000003b8       ??_7KIndexNode@@6B@        100843b8     KMissle.obj
 0002:000003bc       ??_7KNode@@6B@             100843bc     KMissle.obj
 0002:000003c0       ??_7KWorldMsgNode@@6B@     100843c0     KMissle.obj
 0002:000003c4       ??_7KSkillSpecialNode@@6B@ 100843c4     KMissle.obj
 0002:000003c8       ??_7KSkill@@6B@            100843c8     KSkills.obj
 0002:0000040c       ??_7KStateNode@@6B@        1008440c     KNpc.obj
 0002:00000410       ??_7KNpcResNode@@6B@       10084410     KNpcResNode.obj
 0002:00000414       ??_SKLuaScript@@6B@        10084414     KPlayer.obj
 0002:00000438       ??_7CChatFriend@@6B@       10084438     KPlayerChat.obj
 0002:0000043c       ??_7KBasicPropertyTable@@6B@ 1008443c     KBasPropTbl.obj
 0002:00000444       ??_7KBPT_Mine@@6B@         10084444     KBasPropTbl.obj
 0002:0000044c       ??_7KBPT_TownPortal@@6B@   1008444c     KBasPropTbl.obj
 0002:00000454       ??_7KBPT_Quest@@6B@        10084454     KBasPropTbl.obj
 0002:0000045c       ??_7KBPT_Medicine@@6B@     1008445c     KBasPropTbl.obj
 0002:00000464       ??_7KBPT_MedMaterial@@6B@  10084464     KBasPropTbl.obj
 0002:0000046c       ??_7KBPT_Equipment@@6B@    1008446c     KBasPropTbl.obj
 0002:00000474       ??_7KBPT_Equipment_Gold@@6B@ 10084474     KBasPropTbl.obj
 0002:00000480       ??_7KBPT_Equipment_Unique@@6B@ 10084480     KBasPropTbl.obj
 0002:00000488       ??_7KBPT_MagicAttrib_TF@@6B@ 10084488     KBasPropTbl.obj
 0002:00000494       ??_7CChatApplyListNode@@6B@ 10084494     KProtocolProcess.obj
 0002:00000498       ??_7KScriptValueSet@@6B@   10084498     KScriptValueSet.obj
 0002:0000049c       ??_7TStringValueNode@@6B@  1008449c     KScriptValueSet.obj
 0002:000004a0       ??_7TIntegerValueNode@@6B@ 100844a0     KScriptValueSet.obj
 0002:000004a4       ??_7KCoreShell@@6B@        100844a4     CoreShell.obj
 0002:00000530       ??_7KSelfBreathLight@@6B@  10084530     KIpoTree.obj
 0002:00000534       ??_7KLightBase@@6B@        10084534     KIpoTree.obj
 0002:00000538       __real@4@4007b400000000000000 10084538     KIpoTree.obj
 0002:0000053c       __real@4@40048000000000000000 1008453c     KIpoTree.obj
 0002:00000540       __real@8@400f8000000000000000 10084540     KIpoTree.obj
 0002:00000548       __real@8@3fff8000000000000000 10084548     KIpoTree.obj
 0002:00000550       __real@4@00000000000000000000 10084550     KIpoTree.obj
 0002:00000554       __real@4@4005af00000000000000 10084554     KIpoTree.obj
 0002:00000558       ?m_PrevLoadPosOffset@KScenePlaceC@@0QAY02$$CBU_KPrevLoadPosItem@@A 10084558     KScenePlaceC.obj
 0002:000006e4       __real@4@3fff8000000000000000 100846e4     KScenePlaceC.obj
 0002:000006e8       __real@4@4005f000000000000000 100846e8     KScenePlaceC.obj
 0002:000006f0       __real@8@40038000000000000000 100846f0     KScenePlaceC.obj
 0002:000006f8       __real@8@3ff8a3d70a0000000000 100846f8     KScenePlaceC.obj
 0002:00000700       ??_7TreeObjSet@?BH@??Preprocess@KScenePlaceC@@AAEXXZ@6B@ 10084700     KScenePlaceC.obj
 0002:00000704       ??_7KWeather@@6B@          10084704     KWeather.obj
 0002:0000071c       ??_7KWeatherRain@@6B@      1008471c     KWeather.obj
 0002:00000734       __real@4@4007fa00000000000000 10084734     KWeather.obj
 0002:00000738       __real@4@4003a000000000000000 10084738     KWeather.obj
 0002:0000073c       __real@4@3ffeb333330000000000 1008473c     KWeather.obj
 0002:00000740       __real@4@3ff7a3d70a0000000000 10084740     KWeather.obj
 0002:00000744       __real@4@4001c000000000000000 10084744     KWeather.obj
 0002:00000748       __real@4@40018000000000000000 10084748     KWeather.obj
 0002:00000750       __real@8@40048000000000000000 10084750     SceneMath.obj
 0002:00000758       ?MAGIC_ATTRIB_STRING@@3QAY0GE@$$CBDA 10084758     KMagicDesc.obj
 0002:0000498c       ??_C@_08JKC@crtdll?4c?$AA@ 1008898c     MSVCRTD:crtdll.obj
 0002:000060e0       __IMPORT_DESCRIPTOR_KERNEL32 1008a0e0     kernel32:KERNEL32.dll
 0002:000060f4       __IMPORT_DESCRIPTOR_LuaLibDll 1008a0f4     lualibdll:LuaLibDll.dll
 0002:00006108       __IMPORT_DESCRIPTOR_WINMM  1008a108     Winmm:WINMM.dll
 0002:0000611c       __IMPORT_DESCRIPTOR_Engine 1008a11c     engine:Engine.dll
 0002:00006130       __IMPORT_DESCRIPTOR_MSVCRTD 1008a130     MSVCRTD:MSVCRTD.dll
 0002:00006144       __IMPORT_DESCRIPTOR_MSVCP60D 1008a144     msvcprtd:MSVCP60D.dll
 0002:00006158       __NULL_IMPORT_DESCRIPTOR   1008a158     kernel32:KERNEL32.dll
 0003:00000000       ___xc_a                    1008d000     MSVCRTD:cinitexe.obj
 0003:000000ac       ___xc_z                    1008d0ac     MSVCRTD:cinitexe.obj
 0003:000000b0       ___xi_a                    1008d0b0     MSVCRTD:cinitexe.obj
 0003:000000b4       ___xi_z                    1008d0b4     MSVCRTD:cinitexe.obj
 0003:000002b8       ?g_CollisionMatrix@@3PAUTCollisionMatrix@@A 1008d2b8     KMissle.obj
 0003:00000fc8       ??_C@_0BG@DBNK@?4?4?2engine?2src?2KNode?4h?$AA@ 1008dfc8     KMissle.obj
 0003:00001930       ??_C@_0EF@BAPG@Param2PCoordinate?$LK?$KP?J?$PN?$LL?q?$LF?C?$LC?N?J?$PN?N?$KF?$LH@ 1008e930     KSkills.obj
 0003:000021e8       ??_C@_0DA@PCKJ@D?3?2swrod3?2SwordOnline?2Sources?2Co@ 1008f1e8     KNpcAI.obj
 0003:0000363c       ?g_dwChannelOr@@3PAKA      1009063c     KPlayerChat.obj
 0003:00003660       ?g_dwChannelAnd@@3PAKA     10090660     KPlayerChat.obj
 0003:00003e08       ?TABFILE_EQUIPMENT@@3PAPADA 10090e08     KBasPropTbl.obj
 0003:00006150       ?g_nEquipPower@@3PAHA      10093150     KItemList.obj
 0003:0000617c       ?ms_ActiveEquip@KItemList@@0PAY01HA 1009317c     KItemList.obj
 0003:000061d4       ?ms_ActivedEquip@KItemList@@0PAY01HA 100931d4     KItemList.obj
 0003:000068a4       ?g_szObjKind@@3PAY0CA@DA   100938a4     KObjSet.obj
 0003:00006a04       ?g_dwObjKindNum@@3PAKA     10093a04     KObjSet.obj
 0003:000072ac       ??_C@_0DE@HIIA@D?3?2swrod3?2SwordOnline?2Sources?2Co@ 100942ac     KRegion.obj
 0003:000072e0       ?g_nSinBuffer@@3PAHA       100942e0     KMath.obj
 0003:000073e0       ?g_nCosBuffer@@3PAHA       100943e0     KMath.obj
 0003:000074e0       ?g_InternalDirSinCosCodeBuffer@@3PAEA 100944e0     KMath.obj
 0003:00007504       ?g_InternalIsAccrueConquerCodeBuffer@@3PAEA 10094504     KMath.obj
 0003:00007530       ?g_nSin@@3PAHA             10094530     KMath.obj
 0003:00007534       ?g_nCos@@3PAHA             10094534     KMath.obj
 0003:00007538       ?g_InternalDirSinCosCode@@3PAEA 10094538     KMath.obj
 0003:0000753c       ?g_InternalIsAccrueConquerCode@@3PAEA 1009453c     KMath.obj
 0003:00007540       ?g_nProtocolSize@@3PAHA    10094540     KProtocol.obj
 0003:000080e0       ?GameScriptFuns@@3PAUTLua_Funcs@@A 100950e0     ScriptFuns.obj
 0003:00008190       ?WorldScriptFuns@@3PAUTLua_Funcs@@A 10095190     ScriptFuns.obj
 0003:00008860       ?m_BranchFlag@KIpotBranch@@0PAIA 10095860     KIpotBranch.obj
 0003:00008bd8       ?m_RangePosTable@KScenePlaceC@@0PAUtagPOINT@@A 10095bd8     KScenePlaceC.obj
 0003:00008d60       ?m_PRIIdxTable@KScenePlaceC@@0PAHA 10095d60     KScenePlaceC.obj
 0003:00009738       ?Missle@@3PAVKMissle@@A    10096738     KMissle.obj
 0003:0016fd98       ?g_MisslesLib@@3PAVKMissle@@A 101fcd98     KMissle.obj
 0003:001ff358       ?g_nRandMissleTab@@3PAHA   1028c358     KMissle.obj
 0003:001ff508       ?MissleSet@@3VKMissleSet@@A 1028c508     KMissleSet.obj
 0003:001ff520       ?g_SkillManager@@3VKSkillManager@@A 1028c520     KSkillManager.obj
 0003:00220860       ?g_ulSkillCount@@3KA       102ad860     KSkillManager.obj
 0003:00220888       ?SpecialMovieList@@3VKList@@A 102ad888     KSkillSpecial.obj
 0003:002208a0       ?g_Faction@@3VKFaction@@A  102ad8a0     KFaction.obj
 0003:00220b98       ?g_pNpcTemplate@@3PAY0GE@PAVKNpcTemplate@@A 102adb98     KNpc.obj
 0003:002e4098       ?Npc@@3PAVKNpc@@A          10371098     KNpc.obj
 0003:00a520a0       ?NpcAI@@3VKNpcAI@@A        10adf0a0     KNpcAI.obj
 0003:00a520a8       ?g_NpcAttribModify@@3VKNpcAttribModify@@A 10adf0a8     KNpcAttribModify.obj
 0003:00a52398       ?g_NpcResList@@3VKNpcResList@@A 10adf398     KNpcResList.obj
 0003:00a5abc0       ?NpcSet@@3VKNpcSet@@A      10ae7bc0     KNpcSet.obj
 0003:00a5c740       ?g_nLastNetMsgLoop@@3HA    10ae9740     KPlayer.obj
 0003:00a5c748       ?Player@@3PAVKPlayer@@A    10ae9748     KPlayer.obj
 0003:00a68270       ?PlayerSet@@3VKPlayerSet@@A 10af5270     KPlayerSet.obj
 0003:00a68960       ?g_Team@@3PAVKTeam@@A      10af5960     KPlayerTeam.obj
 0003:00a68c08       ?BuySell@@3VKBuySell@@A    10af5c08     KBuySell.obj
 0003:00a68c20       ?Item@@3PAVKItem@@A        10af5c20     KItem.obj
 0003:00ae3430       ?g_ItemChangeRes@@3VKItemChangeRes@@A 10b70430     KItemChangeRes.obj
 0003:00ae34c0       ?ItemGen@@3VKItemGenerator@@A 10b704c0     KItemGenerator.obj
 0003:00ae8b90       ?ItemSet@@3VKItemSet@@A    10b75b90     KItemSet.obj
 0003:00ae8c30       ?Object@@3PAVKObj@@A       10b75c30     KObj.obj
 0003:00b24c38       ?ObjSet@@3VKObjSet@@A      10bb1c38     KObjSet.obj
 0003:00b24cd8       ?g_cViewItem@@3VKViewItem@@A 10bb1cd8     KViewItem.obj
 0003:00b24db0       ?g_WorldScript@@3VKLuaScript@@A 10bb1db0     KCore.obj
 0003:00b24e24       ?g_bDebugScript@@3HA       10bb1e24     KCore.obj
 0003:00b24e28       ?g_SoundCache@@3VKSoundCache@@A 10bb1e28     KCore.obj
 0003:00b24e4c       ?g_nHandSkill@@3HA         10bb1e4c     KCore.obj
 0003:00b24e50       ?g_nRangeWeaponSkill@@3PAHA 10bb1e50     KCore.obj
 0003:00b24fe0       ?g_nMeleeWeaponSkill@@3PAHA 10bb1fe0     KCore.obj
 0003:00b25170       ?g_NpcKindFile@@3VKTabFile@@A 10bb2170     KCore.obj
 0003:00b25190       ?g_NpcSetting@@3VKTabFile@@A 10bb2190     KCore.obj
 0003:00b251b0       ?g_SkillLevelSetting@@3VKTabFile@@A 10bb21b0     KCore.obj
 0003:00b251d0       ?g_MisslesSetting@@3VKTabFile@@A 10bb21d0     KCore.obj
 0003:00b251f0       ?g_OrdinSkillsSetting@@3VKTabFile@@A 10bb21f0     KCore.obj
 0003:00b2520c       ?g_bPingReply@@3HA         10bb220c     KCore.obj
 0003:00b25210       ?g_pClient@@3PAUIClient@@A 10bb2210     KCore.obj
 0003:00b25218       ?g_RankTabSetting@@3VKTabFile@@A 10bb2218     KCore.obj
 0003:00b25238       ?g_ClientWeaponSkillTabFile@@3VKTabFile@@A 10bb2238     KCore.obj
 0003:00b25254       ?g_pAdjustColorTab@@3PAIA  10bb2254     KCore.obj
 0003:00b25258       ?g_ulAdjustColorCount@@3IA 10bb2258     KCore.obj
 0003:00b2525c       ?g_bUISelIntelActiveWithServer@@3HA 10bb225c     KCore.obj
 0003:00b25260       ?g_bUISpeakActiveWithServer@@3HA 10bb2260     KCore.obj
 0003:00b25264       ?g_bUISelLastSelCount@@3HA 10bb2264     KCore.obj
 0003:00b25268       ?g_pMusic@@3PAVKMusic@@A   10bb2268     KCore.obj
 0003:00b2526c       ?g_pNpcLevelScript@@3PAVKLuaScript@@A 10bb226c     KCore.obj
 0003:00b25270       ?SubWorld@@3PAVKSubWorld@@A 10bb2270     KSubWorld.obj
 0003:00b25350       ?nActiveRegionCount@@3HA   10bb2350     KSubWorldSet.obj
 0003:00b25358       ?g_SubWorldSet@@3VKSubWorldSet@@A 10bb2358     KSubWorldSet.obj
 0003:00b31480       ?g_nConquerSeries@@3PAHA   10bbe480     KMath.obj
 0003:00b31494       ?g_nAccrueSeries@@3PAHA    10bbe494     KMath.obj
 0003:00b314a8       ?g_ProtocolProcess@@3VKProtocolProcess@@A 10bbe4a8     KProtocolProcess.obj
 0003:00b318a0       ?g_TempValue@@3PAHA        10bbe8a0     ScriptFuns.obj
 0003:00b32070       ?g_StoryScriptList@@3VKScriptList@@A 10bbf070     ScriptFuns.obj
 0003:00b32088       ?g_ScriptValueSet@@3VKScriptValueSet@@A 10bbf088     KScriptValueSet.obj
 0003:00b320d0       ?g_szCurScriptDir@@3PADA   10bbf0d0     KSortScript.obj
 0003:00b321d4       ?nCurrentScriptNum@@3IA    10bbf1d4     KSortScript.obj
 0003:00b321d8       ?g_ScriptBinTree@@3V?$BinSTree@VKSortScriptNode@@@@A 10bbf1d8     KSortScript.obj
 0003:00b321e8       ?g_ScriptSet@@3PAVKLuaScript@@A 10bbf1e8     KSortScript.obj
 0003:00b32434       ?l_pDataChangedNotifyFunc@@3PAUIClientCallback@@A 10bbf434     CoreShell.obj
 0003:00b32440       ?g_ScenePlace@@3VKScenePlaceC@@A 10bbf440     KScenePlaceC.obj
 0003:00b9c7e4       ?g_bShowGameInfo@@3_NA     10c297e4     KScenePlaceC.obj
 0003:00b9c7e8       ?g_nMapIndex@@3HA          10c297e8     KScenePlaceC.obj
 0003:00b9c7ec       ?g_bShowObstacle@@3HA      10c297ec     KScenePlaceC.obj
 0003:00b9c834       ?g_pRepresent@@3PAUiRepresentShell@@A 10c29834     ImgRef.obj
 0003:00b9c838       ?l_Time@@3IA               10c29838     ImgRef.obj
 0003:00b9c840       ?g_MagicDesc@@3VKMagicDesc@@A 10c29840     KMagicDesc.obj
 0003:00b9c920       ?g_StringResourseTabFile@@3VKTabFile@@A 10c29920     KTaskFuns.obj
 0003:00b9c940       ?Option@@3VKOption@@A      10c29940     KOption.obj
 0003:00b9c950       ?Ladder@@3VKLadder@@A      10c29950     KLadder.obj
 0003:00b9e244       __adjust_fdiv              10c2b244     <common>
 0003:00b9e248       __pRawDllMain              10c2b248     <common>
 0003:00b9e24c       ___onexitend               10c2b24c     <common>
 0003:00b9e250       ___onexitbegin             10c2b250     <common>

 entry point at        0001:000810c0

 Static symbols

 0001:00080670       _$E6                       10081670 f   KLadder.obj
 0001:00080686       _$E3                       10081686 f   KLadder.obj
 0001:0008069c       _$E5                       1008169c f   KLadder.obj
 0001:000806b5       _$E4                       100816b5 f   KLadder.obj
 0001:0007ece0       _$E9                       1007fce0 f   KTaskFuns.obj
 0001:0007ecf6       _$E6                       1007fcf6 f   KTaskFuns.obj
 0001:0007ed18       _$E8                       1007fd18 f   KTaskFuns.obj
 0001:0007ed31       _$E7                       1007fd31 f   KTaskFuns.obj
 0001:0007dfe0       _$E6                       1007efe0 f   KMagicDesc.obj
 0001:0007dff6       _$E3                       1007eff6 f   KMagicDesc.obj
 0001:0007e00c       _$E5                       1007f00c f   KMagicDesc.obj
 0001:0007e025       _$E4                       1007f025 f   KMagicDesc.obj
 0001:0007b08f       _$E4                       1007c08f f   SceneMath.obj
 0001:0007b0a0       _$E3                       1007c0a0 f   SceneMath.obj
 0001:000704f0       _$E12                      100714f0 f   KScenePlaceC.obj
 0001:00070506       _$E9                       10071506 f   KScenePlaceC.obj
 0001:0007051c       _$E11                      1007151c f   KScenePlaceC.obj
 0001:00070535       _$E10                      10071535 f   KScenePlaceC.obj
 0001:00065e30       _$E12                      10066e30 f   CoreShell.obj
 0001:00065e41       _$E11                      10066e41 f   CoreShell.obj
 0001:00064ec0       _$E6                       10065ec0 f   KSortScript.obj
 0001:00064ed6       _$E3                       10065ed6 f   KSortScript.obj
 0001:00064efd       _$E5                       10065efd f   KSortScript.obj
 0001:00064f16       _$E4                       10065f16 f   KSortScript.obj
 0001:00064f36       _$E11                      10065f36 f   KSortScript.obj
 0001:00064f4c       _$E8                       10065f4c f   KSortScript.obj
 0001:00064f62       _$E10                      10065f62 f   KSortScript.obj
 0001:00064f7b       _$E9                       10065f7b f   KSortScript.obj
 0001:00065014       ?LoadAllScript@@YAKPAD@Z   10066014 f   KSortScript.obj
 0001:00065426       ?LoadScriptToSortList@@YAHPAD@Z 10066426 f   KSortScript.obj
 0001:000655c0       ?LoadScriptToSortListA@@YAHPAD@Z 100665c0 f   KSortScript.obj
 0001:00064430       _$E6                       10065430 f   KScriptValueSet.obj
 0001:00064446       _$E3                       10065446 f   KScriptValueSet.obj
 0001:0006445c       _$E5                       1006545c f   KScriptValueSet.obj
 0001:00064475       _$E4                       10065475 f   KScriptValueSet.obj
 0001:00061c50       _$E9                       10062c50 f   ScriptFuns.obj
 0001:00061c66       _$E6                       10062c66 f   ScriptFuns.obj
 0001:00061c88       _$E8                       10062c88 f   ScriptFuns.obj
 0001:00061ca1       _$E7                       10062ca1 f   ScriptFuns.obj
 0001:0005a3d0       _$E14                      1005b3d0 f   KProtocolProcess.obj
 0001:0005a3e6       _$E11                      1005b3e6 f   KProtocolProcess.obj
 0001:0005a3fc       _$E13                      1005b3fc f   KProtocolProcess.obj
 0001:0005a415       _$E12                      1005b415 f   KProtocolProcess.obj
 0001:000607f8       ?sParseUGName@@YAHABV?$basic_string@DU?$char_traits@D@std@@V?$allocator@D@2@@std@@PAV12@1@Z 100617f8 f   KProtocolProcess.obj
 0001:000572f0       _$E8                       100582f0 f   KSubWorldSet.obj
 0001:00057306       _$E5                       10058306 f   KSubWorldSet.obj
 0001:0005731c       _$E7                       1005831c f   KSubWorldSet.obj
 0001:00057335       _$E6                       10058335 f   KSubWorldSet.obj
 0001:00054020       _$E14                      10055020 f   KSubWorld.obj
 0001:00054036       _$E11                      10055036 f   KSubWorld.obj
 0001:0005405d       _$E13                      1005505d f   KSubWorld.obj
 0001:00054076       _$E12                      10055076 f   KSubWorld.obj
 0001:00052ed0       _$E7                       10053ed0 f   KCore.obj
 0001:00052ee6       _$E4                       10053ee6 f   KCore.obj
 0001:00052f08       _$E6                       10053f08 f   KCore.obj
 0001:00052f21       _$E5                       10053f21 f   KCore.obj
 0001:00052f43       _$E18                      10053f43 f   KCore.obj
 0001:00052f59       _$E15                      10053f59 f   KCore.obj
 0001:00052f7b       _$E17                      10053f7b f   KCore.obj
 0001:00052f94       _$E16                      10053f94 f   KCore.obj
 0001:00052fb6       _$E23                      10053fb6 f   KCore.obj
 0001:00052fcc       _$E20                      10053fcc f   KCore.obj
 0001:00053002       _$E22                      10054002 f   KCore.obj
 0001:0005301b       _$E21                      1005401b f   KCore.obj
 0001:00053051       _$E28                      10054051 f   KCore.obj
 0001:00053067       _$E25                      10054067 f   KCore.obj
 0001:00053089       _$E27                      10054089 f   KCore.obj
 0001:000530a2       _$E26                      100540a2 f   KCore.obj
 0001:000530c4       _$E33                      100540c4 f   KCore.obj
 0001:000530da       _$E30                      100540da f   KCore.obj
 0001:000530fc       _$E32                      100540fc f   KCore.obj
 0001:00053115       _$E31                      10054115 f   KCore.obj
 0001:00053137       _$E38                      10054137 f   KCore.obj
 0001:0005314d       _$E35                      1005414d f   KCore.obj
 0001:0005316f       _$E37                      1005416f f   KCore.obj
 0001:00053188       _$E36                      10054188 f   KCore.obj
 0001:000531aa       _$E43                      100541aa f   KCore.obj
 0001:000531c0       _$E40                      100541c0 f   KCore.obj
 0001:000531e2       _$E42                      100541e2 f   KCore.obj
 0001:000531fb       _$E41                      100541fb f   KCore.obj
 0001:0005321d       _$E48                      1005421d f   KCore.obj
 0001:00053233       _$E45                      10054233 f   KCore.obj
 0001:00053255       _$E47                      10054255 f   KCore.obj
 0001:0005326e       _$E46                      1005426e f   KCore.obj
 0001:00052b00       _$E4                       10053b00 f   KViewItem.obj
 0001:00052b11       _$E3                       10053b11 f   KViewItem.obj
 0001:00050f20       _$E12                      10051f20 f   KObjSet.obj
 0001:00050f36       _$E9                       10051f36 f   KObjSet.obj
 0001:00050f4c       _$E11                      10051f4c f   KObjSet.obj
 0001:00050f65       _$E10                      10051f65 f   KObjSet.obj
 0001:0004f4b0       _$E12                      100504b0 f   KObj.obj
 0001:0004f4c1       _$E11                      100504c1 f   KObj.obj
 0001:0004e970       _$E6                       1004f970 f   KItemSet.obj
 0001:0004e986       _$E3                       1004f986 f   KItemSet.obj
 0001:0004e99c       _$E5                       1004f99c f   KItemSet.obj
 0001:0004e9b5       _$E4                       1004f9b5 f   KItemSet.obj
 0001:00048ac0       _$E6                       10049ac0 f   KItemGenerator.obj
 0001:00048ad6       _$E3                       10049ad6 f   KItemGenerator.obj
 0001:00048aec       _$E5                       10049aec f   KItemGenerator.obj
 0001:00048b05       _$E4                       10049b05 f   KItemGenerator.obj
 0001:00048590       _$E6                       10049590 f   KItemChangeRes.obj
 0001:000485a6       _$E3                       100495a6 f   KItemChangeRes.obj
 0001:000485bc       _$E5                       100495bc f   KItemChangeRes.obj
 0001:000485d5       _$E4                       100495d5 f   KItemChangeRes.obj
 0001:00046350       _$E29                      10047350 f   KItem.obj
 0001:00046366       _$E26                      10047366 f   KItem.obj
 0001:00046390       _$E28                      10047390 f   KItem.obj
 0001:000463a9       _$E27                      100473a9 f   KItem.obj
 0001:00044950       _$E8                       10045950 f   KBuySell.obj
 0001:00044966       _$E5                       10045966 f   KBuySell.obj
 0001:0004497c       _$E7                       1004597c f   KBuySell.obj
 0001:00044995       _$E6                       10045995 f   KBuySell.obj
 0001:0003be30       _$E6                       1003ce30 f   KPlayerTeam.obj
 0001:0003be41       _$E5                       1003ce41 f   KPlayerTeam.obj
 0001:0003a9b0       _$E8                       1003b9b0 f   KPlayerSet.obj
 0001:0003a9c6       _$E5                       1003b9c6 f   KPlayerSet.obj
 0001:0003a9dc       _$E7                       1003b9dc f   KPlayerSet.obj
 0001:0003a9f5       _$E6                       1003b9f5 f   KPlayerSet.obj
 0001:0002dc00       _$E15                      1002ec00 f   KPlayer.obj
 0001:0002dc16       _$E12                      1002ec16 f   KPlayer.obj
 0001:0002dc3d       _$E14                      1002ec3d f   KPlayer.obj
 0001:0002dc56       _$E13                      1002ec56 f   KPlayer.obj
 0001:0002a0d0       _$E14                      1002b0d0 f   KNpcSet.obj
 0001:0002a0e6       _$E11                      1002b0e6 f   KNpcSet.obj
 0001:0002a0fc       _$E13                      1002b0fc f   KNpcSet.obj
 0001:0002a115       _$E12                      1002b115 f   KNpcSet.obj
 0001:00025b40       _$E6                       10026b40 f   KNpcResList.obj
 0001:00025b56       _$E3                       10026b56 f   KNpcResList.obj
 0001:00025b6c       _$E5                       10026b6c f   KNpcResList.obj
 0001:00025b85       _$E4                       10026b85 f   KNpcResList.obj
 0001:0001d530       _$E8                       1001e530 f   KNpcAttribModify.obj
 0001:0001d546       _$E5                       1001e546 f   KNpcAttribModify.obj
 0001:0001d55c       _$E7                       1001e55c f   KNpcAttribModify.obj
 0001:0001d575       _$E6                       1001e575 f   KNpcAttribModify.obj
 0001:00019cd0       _$E6                       1001acd0 f   KNpcAI.obj
 0001:00019ce1       _$E5                       1001ace1 f   KNpcAI.obj
 0001:00010210       _$E14                      10011210 f   KNpc.obj
 0001:00010226       _$E11                      10011226 f   KNpc.obj
 0001:00010250       _$E13                      10011250 f   KNpc.obj
 0001:00010269       _$E12                      10011269 f   KNpc.obj
 0001:0000f760       _$E12                      10010760 f   KSkillSpecial.obj
 0001:0000f776       _$E9                       10010776 f   KSkillSpecial.obj
 0001:0000f78c       _$E11                      1001078c f   KSkillSpecial.obj
 0001:0000f7a5       _$E10                      100107a5 f   KSkillSpecial.obj
 0001:000080e0       _$E8                       100090e0 f   KSkillManager.obj
 0001:000080f6       _$E5                       100090f6 f   KSkillManager.obj
 0001:0000810c       _$E7                       1000910c f   KSkillManager.obj
 0001:00008125       _$E6                       10009125 f   KSkillManager.obj
 0001:00006b10       _$E6                       10007b10 f   KMissleSet.obj
 0001:00006b26       _$E3                       10007b26 f   KMissleSet.obj
 0001:00006b3c       _$E5                       10007b3c f   KMissleSet.obj
 0001:00006b55       _$E4                       10007b55 f   KMissleSet.obj
 0001:00001180       _$E14                      10002180 f   KMissle.obj
 0001:00001196       _$E11                      10002196 f   KMissle.obj
 0001:000011c0       _$E13                      100021c0 f   KMissle.obj
 0001:000011d9       _$E12                      100021d9 f   KMissle.obj
 0001:000011fe       _$E19                      100021fe f   KMissle.obj
 0001:00001214       _$E16                      10002214 f   KMissle.obj
 0001:0000123e       _$E18                      1000223e f   KMissle.obj
 0001:00001257       _$E17                      10002257 f   KMissle.obj
 0001:00080f30       _$$$00001                  10081f30 f   MSVCRTD:chkstk.obj
 0001:00080f3c       probepages                 10081f3c f   MSVCRTD:chkstk.obj
 0001:00080f50       lastpage                   10081f50 f   MSVCRTD:chkstk.obj
 0001:00080ea0       ?ArrayUnwindFilter@@YAHPAU_EXCEPTION_POINTERS@@@Z 10081ea0 f   MSVCRTD:ehvecdtr.obj
